
usb_dev_bulk:     file format elf32-littlearm


Disassembly of section .text:

00000000 <g_pfnVectors>:
       0:	24 0e 00 20 29 03 00 00 95 03 00 00 9b 03 00 00     $.. )...........
      10:	a1 03 00 00 a1 03 00 00 a1 03 00 00 00 00 00 00     ................
	...
      2c:	a1 03 00 00 a1 03 00 00 00 00 00 00 a1 03 00 00     ................
      3c:	a9 03 00 00 a1 03 00 00 a1 03 00 00 a1 03 00 00     ................
      4c:	a1 03 00 00 a1 03 00 00 f9 0b 00 00 a1 03 00 00     ................
      5c:	a1 03 00 00 a1 03 00 00 a1 03 00 00 a1 03 00 00     ................
      6c:	a1 03 00 00 a1 03 00 00 a1 03 00 00 a1 03 00 00     ................
      7c:	a1 03 00 00 a1 03 00 00 a1 03 00 00 a1 03 00 00     ................
      8c:	a1 03 00 00 a1 03 00 00 a1 03 00 00 a1 03 00 00     ................
      9c:	a1 03 00 00 a1 03 00 00 a1 03 00 00 a1 03 00 00     ................
      ac:	a1 03 00 00 a1 03 00 00 a1 03 00 00 a1 03 00 00     ................
      bc:	a1 03 00 00 a1 03 00 00 a1 03 00 00 a1 03 00 00     ................
      cc:	a1 03 00 00 a1 03 00 00 a1 03 00 00 a1 03 00 00     ................
      dc:	a1 03 00 00 a1 03 00 00 a1 03 00 00 a1 03 00 00     ................
      ec:	a1 03 00 00 d9 37 00 00 a1 03 00 00 a1 03 00 00     .....7..........
      fc:	a1 03 00 00 a1 03 00 00 a1 03 00 00 a1 03 00 00     ................
     10c:	a1 03 00 00 a1 03 00 00 a1 03 00 00 a1 03 00 00     ................
     11c:	a1 03 00 00 a1 03 00 00 a1 03 00 00 a1 03 00 00     ................
     12c:	a1 03 00 00 a1 03 00 00 a1 03 00 00 a1 03 00 00     ................
     13c:	a1 03 00 00 00 00 00 00 00 00 00 00 00 00 00 00     ................
     14c:	00 00 00 00 a1 03 00 00 a1 03 00 00 a1 03 00 00     ................
     15c:	a1 03 00 00 00 00 00 00 00 00 00 00 00 00 00 00     ................
	...
     1b0:	a1 03 00 00 a1 03 00 00 a1 03 00 00 a1 03 00 00     ................
     1c0:	a1 03 00 00 a1 03 00 00 a1 03 00 00 a1 03 00 00     ................
     1d0:	a1 03 00 00 a1 03 00 00 a1 03 00 00 a1 03 00 00     ................
     1e0:	a1 03 00 00 a1 03 00 00 a1 03 00 00 a1 03 00 00     ................
     1f0:	a1 03 00 00 a1 03 00 00 a1 03 00 00 a1 03 00 00     ................
     200:	a1 03 00 00 a1 03 00 00 a1 03 00 00 00 00 00 00     ................
     210:	a1 03 00 00 a1 03 00 00 a1 03 00 00 a1 03 00 00     ................
     220:	a1 03 00 00 a1 03 00 00 a1 03 00 00 a1 03 00 00     ................
     230:	a1 03 00 00 a1 03 00 00 a1 03 00 00 a1 03 00 00     ................
     240:	a1 03 00 00 a1 03 00 00 a1 03 00 00 a1 03 00 00     ................
     250:	a1 03 00 00 a1 03 00 00 a1 03 00 00 a1 03 00 00     ................
     260:	a1 03 00 00 a1 03 00 00 a1 03 00 00                 ............

0000026c <_init>:
     26c:	b5f8      	push	{r3, r4, r5, r6, r7, lr}
     26e:	bf00      	nop
     270:	bcf8      	pop	{r3, r4, r5, r6, r7}
     272:	bc08      	pop	{r3}
     274:	469e      	mov	lr, r3
     276:	4770      	bx	lr

00000278 <_fini>:
     278:	b5f8      	push	{r3, r4, r5, r6, r7, lr}
     27a:	bf00      	nop
     27c:	bcf8      	pop	{r3, r4, r5, r6, r7}
     27e:	bc08      	pop	{r3}
     280:	469e      	mov	lr, r3
     282:	4770      	bx	lr

00000284 <memset>:
     284:	b4f0      	push	{r4, r5, r6, r7}
     286:	0786      	lsls	r6, r0, #30
     288:	d043      	beq.n	312 <memset+0x8e>
     28a:	1e54      	subs	r4, r2, #1
     28c:	2a00      	cmp	r2, #0
     28e:	d03e      	beq.n	30e <memset+0x8a>
     290:	b2ca      	uxtb	r2, r1
     292:	4603      	mov	r3, r0
     294:	e002      	b.n	29c <memset+0x18>
     296:	f114 34ff 	adds.w	r4, r4, #4294967295	; 0xffffffff
     29a:	d338      	bcc.n	30e <memset+0x8a>
     29c:	f803 2b01 	strb.w	r2, [r3], #1
     2a0:	079d      	lsls	r5, r3, #30
     2a2:	d1f8      	bne.n	296 <memset+0x12>
     2a4:	2c03      	cmp	r4, #3
     2a6:	d92b      	bls.n	300 <memset+0x7c>
     2a8:	b2cd      	uxtb	r5, r1
     2aa:	ea45 2505 	orr.w	r5, r5, r5, lsl #8
     2ae:	2c0f      	cmp	r4, #15
     2b0:	ea45 4505 	orr.w	r5, r5, r5, lsl #16
     2b4:	d916      	bls.n	2e4 <memset+0x60>
     2b6:	f1a4 0710 	sub.w	r7, r4, #16
     2ba:	093f      	lsrs	r7, r7, #4
     2bc:	f103 0620 	add.w	r6, r3, #32
     2c0:	eb06 1607 	add.w	r6, r6, r7, lsl #4
     2c4:	f103 0210 	add.w	r2, r3, #16
     2c8:	e942 5504 	strd	r5, r5, [r2, #-16]
     2cc:	e942 5502 	strd	r5, r5, [r2, #-8]
     2d0:	3210      	adds	r2, #16
     2d2:	42b2      	cmp	r2, r6
     2d4:	d1f8      	bne.n	2c8 <memset+0x44>
     2d6:	f004 040f 	and.w	r4, r4, #15
     2da:	3701      	adds	r7, #1
     2dc:	2c03      	cmp	r4, #3
     2de:	eb03 1307 	add.w	r3, r3, r7, lsl #4
     2e2:	d90d      	bls.n	300 <memset+0x7c>
     2e4:	461e      	mov	r6, r3
     2e6:	4622      	mov	r2, r4
     2e8:	3a04      	subs	r2, #4
     2ea:	2a03      	cmp	r2, #3
     2ec:	f846 5b04 	str.w	r5, [r6], #4
     2f0:	d8fa      	bhi.n	2e8 <memset+0x64>
     2f2:	1f22      	subs	r2, r4, #4
     2f4:	f022 0203 	bic.w	r2, r2, #3
     2f8:	3204      	adds	r2, #4
     2fa:	4413      	add	r3, r2
     2fc:	f004 0403 	and.w	r4, r4, #3
     300:	b12c      	cbz	r4, 30e <memset+0x8a>
     302:	b2c9      	uxtb	r1, r1
     304:	441c      	add	r4, r3
     306:	f803 1b01 	strb.w	r1, [r3], #1
     30a:	429c      	cmp	r4, r3
     30c:	d1fb      	bne.n	306 <memset+0x82>
     30e:	bcf0      	pop	{r4, r5, r6, r7}
     310:	4770      	bx	lr
     312:	4614      	mov	r4, r2
     314:	4603      	mov	r3, r0
     316:	e7c5      	b.n	2a4 <memset+0x20>

00000318 <__retarget_lock_init_recursive>:
     318:	4770      	bx	lr
     31a:	bf00      	nop

0000031c <__retarget_lock_close_recursive>:
     31c:	4770      	bx	lr
     31e:	bf00      	nop

00000320 <__retarget_lock_acquire_recursive>:
     320:	4770      	bx	lr
     322:	bf00      	nop

00000324 <__retarget_lock_release_recursive>:
     324:	4770      	bx	lr
     326:	bf00      	nop

00000328 <ResetISR>:
// application.
//
//*****************************************************************************
void
ResetISR(void)
{
     328:	b580      	push	{r7, lr}
     32a:	b082      	sub	sp, #8
     32c:	af00      	add	r7, sp, #0
    unsigned long *pulSrc, *pulDest;

    //
    // Copy the data segment initializers from flash to SRAM.
    //
    pulSrc = &_etext;
     32e:	4b13      	ldr	r3, [pc, #76]	; (37c <zero_loop+0x24>)
     330:	607b      	str	r3, [r7, #4]
    for(pulDest = &_data; pulDest < &_edata; )
     332:	4b13      	ldr	r3, [pc, #76]	; (380 <zero_loop+0x28>)
     334:	603b      	str	r3, [r7, #0]
     336:	e007      	b.n	348 <ResetISR+0x20>
    {
        *pulDest++ = *pulSrc++;
     338:	687a      	ldr	r2, [r7, #4]
     33a:	1d13      	adds	r3, r2, #4
     33c:	607b      	str	r3, [r7, #4]
     33e:	683b      	ldr	r3, [r7, #0]
     340:	1d19      	adds	r1, r3, #4
     342:	6039      	str	r1, [r7, #0]
     344:	6812      	ldr	r2, [r2, #0]
     346:	601a      	str	r2, [r3, #0]
    for(pulDest = &_data; pulDest < &_edata; )
     348:	683b      	ldr	r3, [r7, #0]
     34a:	4a0e      	ldr	r2, [pc, #56]	; (384 <zero_loop+0x2c>)
     34c:	4293      	cmp	r3, r2
     34e:	d3f3      	bcc.n	338 <ResetISR+0x10>
    }

    //
    // Zero fill the bss segment.
    //
    __asm("    ldr     r0, =_bss\n"
     350:	480e      	ldr	r0, [pc, #56]	; (38c <zero_loop+0x34>)
     352:	490f      	ldr	r1, [pc, #60]	; (390 <zero_loop+0x38>)
     354:	f04f 0200 	mov.w	r2, #0

00000358 <zero_loop>:
     358:	4288      	cmp	r0, r1
     35a:	bfb8      	it	lt
     35c:	f840 2b04 	strlt.w	r2, [r0], #4
     360:	dbfa      	blt.n	358 <zero_loop>
    // APIs must be done here prior to the floating-point unit being enabled.
    //
    // Note that this does not use DriverLib since it might not be included in
    // this project.
    //
    HWREG(NVIC_CPAC) = ((HWREG(NVIC_CPAC) &
     362:	4b09      	ldr	r3, [pc, #36]	; (388 <zero_loop+0x30>)
     364:	681b      	ldr	r3, [r3, #0]
     366:	4a08      	ldr	r2, [pc, #32]	; (388 <zero_loop+0x30>)
                         ~(NVIC_CPAC_CP10_M | NVIC_CPAC_CP11_M)) |
                        NVIC_CPAC_CP10_FULL | NVIC_CPAC_CP11_FULL);
     368:	f443 0370 	orr.w	r3, r3, #15728640	; 0xf00000
    HWREG(NVIC_CPAC) = ((HWREG(NVIC_CPAC) &
     36c:	6013      	str	r3, [r2, #0]

    //
    // Call the application's entry point.
    //
    main();
     36e:	f000 f91f 	bl	5b0 <main>
}
     372:	bf00      	nop
     374:	3708      	adds	r7, #8
     376:	46bd      	mov	sp, r7
     378:	bd80      	pop	{r7, pc}
     37a:	bf00      	nop
     37c:	00006ba4 	.word	0x00006ba4
     380:	20000000 	.word	0x20000000
     384:	20000a21 	.word	0x20000a21
     388:	e000ed88 	.word	0xe000ed88
     38c:	20000a24 	.word	0x20000a24
     390:	200016ec 	.word	0x200016ec

00000394 <NmiSR>:
// by a debugger.
//
//*****************************************************************************
static void
NmiSR(void)
{
     394:	b480      	push	{r7}
     396:	af00      	add	r7, sp, #0
    //
    // Enter an infinite loop.
    //
    while(1)
     398:	e7fe      	b.n	398 <NmiSR+0x4>

0000039a <FaultISR>:
// for examination by a debugger.
//
//*****************************************************************************
static void
FaultISR(void)
{
     39a:	b480      	push	{r7}
     39c:	af00      	add	r7, sp, #0
    //
    // Enter an infinite loop.
    //
    while(1)
     39e:	e7fe      	b.n	39e <FaultISR+0x4>

000003a0 <IntDefaultHandler>:
// for examination by a debugger.
//
//*****************************************************************************
static void
IntDefaultHandler(void)
{
     3a0:	b480      	push	{r7}
     3a2:	af00      	add	r7, sp, #0
    //
    // Go into an infinite loop.
    //
    while(1)
     3a4:	e7fe      	b.n	3a4 <IntDefaultHandler+0x4>
	...

000003a8 <SysTickIntHandler>:
// Interrupt handler for the system tick counter.
//
//*****************************************************************************
void
SysTickIntHandler(void)
{
     3a8:	b480      	push	{r7}
     3aa:	af00      	add	r7, sp, #0
    //
    // Update our system tick counter.
    //
    g_ulSysTickCount++;
     3ac:	4b04      	ldr	r3, [pc, #16]	; (3c0 <SysTickIntHandler+0x18>)
     3ae:	681b      	ldr	r3, [r3, #0]
     3b0:	3301      	adds	r3, #1
     3b2:	4a03      	ldr	r2, [pc, #12]	; (3c0 <SysTickIntHandler+0x18>)
     3b4:	6013      	str	r3, [r2, #0]
}
     3b6:	bf00      	nop
     3b8:	46bd      	mov	sp, r7
     3ba:	f85d 7b04 	ldr.w	r7, [sp], #4
     3be:	4770      	bx	lr
     3c0:	20000e24 	.word	0x20000e24

000003c4 <EchoNewDataToHost>:
//
//*****************************************************************************
static unsigned long
EchoNewDataToHost(tUSBDBulkDevice *psDevice, unsigned char *pcData,
                  unsigned long ulNumBytes)
{
     3c4:	b580      	push	{r7, lr}
     3c6:	b08e      	sub	sp, #56	; 0x38
     3c8:	af00      	add	r7, sp, #0
     3ca:	60f8      	str	r0, [r7, #12]
     3cc:	60b9      	str	r1, [r7, #8]
     3ce:	607a      	str	r2, [r7, #4]
    //
    // Get the current buffer information to allow us to write directly to
    // the transmit buffer (we already have enough information from the
    // parameters to access the receive buffer directly).
    //
    USBBufferInfoGet(&g_sTxBuffer, &sTxRing);
     3d0:	f107 0314 	add.w	r3, r7, #20
     3d4:	4619      	mov	r1, r3
     3d6:	483e      	ldr	r0, [pc, #248]	; (4d0 <EchoNewDataToHost+0x10c>)
     3d8:	f004 ff43 	bl	5262 <USBBufferInfoGet>

    //
    // How much space is there in the transmit buffer?
    //
    ulSpace = USBBufferSpaceAvailable(&g_sTxBuffer);
     3dc:	483c      	ldr	r0, [pc, #240]	; (4d0 <EchoNewDataToHost+0x10c>)
     3de:	f004 ff79 	bl	52d4 <USBBufferSpaceAvailable>
     3e2:	62b8      	str	r0, [r7, #40]	; 0x28

    //
    // How many characters can we process this time round?
    //
    ulLoop = (ulSpace < ulNumBytes) ? ulSpace : ulNumBytes;
     3e4:	687a      	ldr	r2, [r7, #4]
     3e6:	6abb      	ldr	r3, [r7, #40]	; 0x28
     3e8:	4293      	cmp	r3, r2
     3ea:	bf28      	it	cs
     3ec:	4613      	movcs	r3, r2
     3ee:	637b      	str	r3, [r7, #52]	; 0x34
    ulCount = ulLoop;
     3f0:	6b7b      	ldr	r3, [r7, #52]	; 0x34
     3f2:	627b      	str	r3, [r7, #36]	; 0x24

    //
    // Update our receive counter.
    //
    g_ulRxCount += ulNumBytes;
     3f4:	4b37      	ldr	r3, [pc, #220]	; (4d4 <EchoNewDataToHost+0x110>)
     3f6:	681a      	ldr	r2, [r3, #0]
     3f8:	687b      	ldr	r3, [r7, #4]
     3fa:	4413      	add	r3, r2
     3fc:	4a35      	ldr	r2, [pc, #212]	; (4d4 <EchoNewDataToHost+0x110>)
     3fe:	6013      	str	r3, [r2, #0]

    //
    // Dump a debug message.
    //
    DEBUG_PRINT("Received %d bytes\n", ulNumBytes);
     400:	bf00      	nop

    //
    // Set up to process the characters by directly accessing the USB buffers.
    //
    ulReadIndex = (unsigned long)(pcData - g_pucUSBRxBuffer);
     402:	68bb      	ldr	r3, [r7, #8]
     404:	4a34      	ldr	r2, [pc, #208]	; (4d8 <EchoNewDataToHost+0x114>)
     406:	1a9b      	subs	r3, r3, r2
     408:	633b      	str	r3, [r7, #48]	; 0x30
    ulWriteIndex = sTxRing.ulWriteIndex;
     40a:	69bb      	ldr	r3, [r7, #24]
     40c:	62fb      	str	r3, [r7, #44]	; 0x2c

    while(ulLoop)
     40e:	e051      	b.n	4b4 <EchoNewDataToHost+0xf0>
        //

        //
        // Is this a lower case character?
        //
        if((g_pucUSBRxBuffer[ulReadIndex] >= 'a') &&
     410:	4a31      	ldr	r2, [pc, #196]	; (4d8 <EchoNewDataToHost+0x114>)
     412:	6b3b      	ldr	r3, [r7, #48]	; 0x30
     414:	4413      	add	r3, r2
     416:	781b      	ldrb	r3, [r3, #0]
     418:	2b60      	cmp	r3, #96	; 0x60
     41a:	d911      	bls.n	440 <EchoNewDataToHost+0x7c>
           (g_pucUSBRxBuffer[ulReadIndex] <= 'z'))
     41c:	4a2e      	ldr	r2, [pc, #184]	; (4d8 <EchoNewDataToHost+0x114>)
     41e:	6b3b      	ldr	r3, [r7, #48]	; 0x30
     420:	4413      	add	r3, r2
     422:	781b      	ldrb	r3, [r3, #0]
        if((g_pucUSBRxBuffer[ulReadIndex] >= 'a') &&
     424:	2b7a      	cmp	r3, #122	; 0x7a
     426:	d80b      	bhi.n	440 <EchoNewDataToHost+0x7c>
        {
            //
            // Convert to upper case and write to the transmit buffer.
            //
            g_pucUSBTxBuffer[ulWriteIndex] =
                (g_pucUSBRxBuffer[ulReadIndex] - 'a') + 'A';
     428:	4a2b      	ldr	r2, [pc, #172]	; (4d8 <EchoNewDataToHost+0x114>)
     42a:	6b3b      	ldr	r3, [r7, #48]	; 0x30
     42c:	4413      	add	r3, r2
     42e:	781b      	ldrb	r3, [r3, #0]
     430:	3b20      	subs	r3, #32
     432:	b2d9      	uxtb	r1, r3
            g_pucUSBTxBuffer[ulWriteIndex] =
     434:	4a29      	ldr	r2, [pc, #164]	; (4dc <EchoNewDataToHost+0x118>)
     436:	6afb      	ldr	r3, [r7, #44]	; 0x2c
     438:	4413      	add	r3, r2
     43a:	460a      	mov	r2, r1
     43c:	701a      	strb	r2, [r3, #0]
     43e:	e020      	b.n	482 <EchoNewDataToHost+0xbe>
        else
        {
            //
            // Is this an upper case character?
            //
            if((g_pucUSBRxBuffer[ulReadIndex] >= 'A') &&
     440:	4a25      	ldr	r2, [pc, #148]	; (4d8 <EchoNewDataToHost+0x114>)
     442:	6b3b      	ldr	r3, [r7, #48]	; 0x30
     444:	4413      	add	r3, r2
     446:	781b      	ldrb	r3, [r3, #0]
     448:	2b40      	cmp	r3, #64	; 0x40
     44a:	d911      	bls.n	470 <EchoNewDataToHost+0xac>
               (g_pucUSBRxBuffer[ulReadIndex] <= 'Z'))
     44c:	4a22      	ldr	r2, [pc, #136]	; (4d8 <EchoNewDataToHost+0x114>)
     44e:	6b3b      	ldr	r3, [r7, #48]	; 0x30
     450:	4413      	add	r3, r2
     452:	781b      	ldrb	r3, [r3, #0]
            if((g_pucUSBRxBuffer[ulReadIndex] >= 'A') &&
     454:	2b5a      	cmp	r3, #90	; 0x5a
     456:	d80b      	bhi.n	470 <EchoNewDataToHost+0xac>
            {
                //
                // Convert to lower case and write to the transmit buffer.
                //
                g_pucUSBTxBuffer[ulWriteIndex] =
                    (g_pucUSBRxBuffer[ulReadIndex] - 'Z') + 'z';
     458:	4a1f      	ldr	r2, [pc, #124]	; (4d8 <EchoNewDataToHost+0x114>)
     45a:	6b3b      	ldr	r3, [r7, #48]	; 0x30
     45c:	4413      	add	r3, r2
     45e:	781b      	ldrb	r3, [r3, #0]
     460:	3320      	adds	r3, #32
     462:	b2d9      	uxtb	r1, r3
                g_pucUSBTxBuffer[ulWriteIndex] =
     464:	4a1d      	ldr	r2, [pc, #116]	; (4dc <EchoNewDataToHost+0x118>)
     466:	6afb      	ldr	r3, [r7, #44]	; 0x2c
     468:	4413      	add	r3, r2
     46a:	460a      	mov	r2, r1
     46c:	701a      	strb	r2, [r3, #0]
     46e:	e008      	b.n	482 <EchoNewDataToHost+0xbe>
            else
            {
                //
                // Copy the received character to the transmit buffer.
                //
                g_pucUSBTxBuffer[ulWriteIndex] = g_pucUSBRxBuffer[ulReadIndex];
     470:	4a19      	ldr	r2, [pc, #100]	; (4d8 <EchoNewDataToHost+0x114>)
     472:	6b3b      	ldr	r3, [r7, #48]	; 0x30
     474:	4413      	add	r3, r2
     476:	7819      	ldrb	r1, [r3, #0]
     478:	4a18      	ldr	r2, [pc, #96]	; (4dc <EchoNewDataToHost+0x118>)
     47a:	6afb      	ldr	r3, [r7, #44]	; 0x2c
     47c:	4413      	add	r3, r2
     47e:	460a      	mov	r2, r1
     480:	701a      	strb	r2, [r3, #0]

        //
        // Move to the next character taking care to adjust the pointer for
        // the buffer wrap if necessary.
        //
        ulWriteIndex++;
     482:	6afb      	ldr	r3, [r7, #44]	; 0x2c
     484:	3301      	adds	r3, #1
     486:	62fb      	str	r3, [r7, #44]	; 0x2c
        ulWriteIndex = (ulWriteIndex == BULK_BUFFER_SIZE) ? 0 : ulWriteIndex;
     488:	6afb      	ldr	r3, [r7, #44]	; 0x2c
     48a:	f5b3 7f80 	cmp.w	r3, #256	; 0x100
     48e:	d001      	beq.n	494 <EchoNewDataToHost+0xd0>
     490:	6afb      	ldr	r3, [r7, #44]	; 0x2c
     492:	e000      	b.n	496 <EchoNewDataToHost+0xd2>
     494:	2300      	movs	r3, #0
     496:	62fb      	str	r3, [r7, #44]	; 0x2c

        ulReadIndex++;
     498:	6b3b      	ldr	r3, [r7, #48]	; 0x30
     49a:	3301      	adds	r3, #1
     49c:	633b      	str	r3, [r7, #48]	; 0x30
        ulReadIndex = (ulReadIndex == BULK_BUFFER_SIZE) ? 0 : ulReadIndex;
     49e:	6b3b      	ldr	r3, [r7, #48]	; 0x30
     4a0:	f5b3 7f80 	cmp.w	r3, #256	; 0x100
     4a4:	d001      	beq.n	4aa <EchoNewDataToHost+0xe6>
     4a6:	6b3b      	ldr	r3, [r7, #48]	; 0x30
     4a8:	e000      	b.n	4ac <EchoNewDataToHost+0xe8>
     4aa:	2300      	movs	r3, #0
     4ac:	633b      	str	r3, [r7, #48]	; 0x30

        ulLoop--;
     4ae:	6b7b      	ldr	r3, [r7, #52]	; 0x34
     4b0:	3b01      	subs	r3, #1
     4b2:	637b      	str	r3, [r7, #52]	; 0x34
    while(ulLoop)
     4b4:	6b7b      	ldr	r3, [r7, #52]	; 0x34
     4b6:	2b00      	cmp	r3, #0
     4b8:	d1aa      	bne.n	410 <EchoNewDataToHost+0x4c>

    //
    // We've processed the data in place so now send the processed data
    // back to the host.
    //
    USBBufferDataWritten(&g_sTxBuffer, ulCount);
     4ba:	6a79      	ldr	r1, [r7, #36]	; 0x24
     4bc:	4804      	ldr	r0, [pc, #16]	; (4d0 <EchoNewDataToHost+0x10c>)
     4be:	f004 fee3 	bl	5288 <USBBufferDataWritten>

    DEBUG_PRINT("Wrote %d bytes\n", ulCount);
     4c2:	bf00      	nop
    //
    // We processed as much data as we can directly from the receive buffer so
    // we need to return the number of bytes to allow the lower layer to
    // update its read pointer appropriately.
    //
    return(ulCount);
     4c4:	6a7b      	ldr	r3, [r7, #36]	; 0x24
}
     4c6:	4618      	mov	r0, r3
     4c8:	3738      	adds	r7, #56	; 0x38
     4ca:	46bd      	mov	sp, r7
     4cc:	bd80      	pop	{r7, pc}
     4ce:	bf00      	nop
     4d0:	000068c4 	.word	0x000068c4
     4d4:	20000e2c 	.word	0x20000e2c
     4d8:	2000154c 	.word	0x2000154c
     4dc:	2000141c 	.word	0x2000141c

000004e0 <TxHandler>:
//
//*****************************************************************************
unsigned long
TxHandler(void *pvCBData, unsigned long ulEvent, unsigned long ulMsgValue,
          void *pvMsgData)
{
     4e0:	b480      	push	{r7}
     4e2:	b085      	sub	sp, #20
     4e4:	af00      	add	r7, sp, #0
     4e6:	60f8      	str	r0, [r7, #12]
     4e8:	60b9      	str	r1, [r7, #8]
     4ea:	607a      	str	r2, [r7, #4]
     4ec:	603b      	str	r3, [r7, #0]
    //
    // We are not required to do anything in response to any transmit event
    // in this example. All we do is update our transmit counter.
    //
    if(ulEvent == USB_EVENT_TX_COMPLETE)
     4ee:	68bb      	ldr	r3, [r7, #8]
     4f0:	2b05      	cmp	r3, #5
     4f2:	d105      	bne.n	500 <TxHandler+0x20>
    {
        g_ulTxCount += ulMsgValue;
     4f4:	4b06      	ldr	r3, [pc, #24]	; (510 <TxHandler+0x30>)
     4f6:	681a      	ldr	r2, [r3, #0]
     4f8:	687b      	ldr	r3, [r7, #4]
     4fa:	4413      	add	r3, r2
     4fc:	4a04      	ldr	r2, [pc, #16]	; (510 <TxHandler+0x30>)
     4fe:	6013      	str	r3, [r2, #0]
    }

    //
    // Dump a debug message.
    //
    DEBUG_PRINT("TX complete %d\n", ulMsgValue);
     500:	bf00      	nop

    return(0);
     502:	2300      	movs	r3, #0
}
     504:	4618      	mov	r0, r3
     506:	3714      	adds	r7, #20
     508:	46bd      	mov	sp, r7
     50a:	f85d 7b04 	ldr.w	r7, [sp], #4
     50e:	4770      	bx	lr
     510:	20000e28 	.word	0x20000e28

00000514 <RxHandler>:
//
//*****************************************************************************
unsigned long
RxHandler(void *pvCBData, unsigned long ulEvent,
               unsigned long ulMsgValue, void *pvMsgData)
{
     514:	b580      	push	{r7, lr}
     516:	b086      	sub	sp, #24
     518:	af00      	add	r7, sp, #0
     51a:	60f8      	str	r0, [r7, #12]
     51c:	60b9      	str	r1, [r7, #8]
     51e:	607a      	str	r2, [r7, #4]
     520:	603b      	str	r3, [r7, #0]
    //
    // Which event are we being sent?
    //
    switch(ulEvent)
     522:	68bb      	ldr	r3, [r7, #8]
     524:	2b08      	cmp	r3, #8
     526:	d832      	bhi.n	58e <RxHandler+0x7a>
     528:	a201      	add	r2, pc, #4	; (adr r2, 530 <RxHandler+0x1c>)
     52a:	f852 f023 	ldr.w	pc, [r2, r3, lsl #2]
     52e:	bf00      	nop
     530:	00000555 	.word	0x00000555
     534:	0000056f 	.word	0x0000056f
     538:	0000057d 	.word	0x0000057d
     53c:	0000058f 	.word	0x0000058f
     540:	0000058f 	.word	0x0000058f
     544:	0000058f 	.word	0x0000058f
     548:	0000058f 	.word	0x0000058f
     54c:	0000058f 	.word	0x0000058f
     550:	0000058f 	.word	0x0000058f
        //
        // We are connected to a host and communication is now possible.
        //
        case USB_EVENT_CONNECTED:
        {
            g_bUSBConfigured = true;
     554:	4b11      	ldr	r3, [pc, #68]	; (59c <RxHandler+0x88>)
     556:	2201      	movs	r2, #1
     558:	701a      	strb	r2, [r3, #0]
            printf("Host connected.\r\n");
     55a:	4811      	ldr	r0, [pc, #68]	; (5a0 <RxHandler+0x8c>)
     55c:	f000 fc26 	bl	dac <iprintf>

            //
            // Flush our buffers.
            //
            USBBufferFlush(&g_sTxBuffer);
     560:	4810      	ldr	r0, [pc, #64]	; (5a4 <RxHandler+0x90>)
     562:	f004 fea8 	bl	52b6 <USBBufferFlush>
            USBBufferFlush(&g_sRxBuffer);
     566:	4810      	ldr	r0, [pc, #64]	; (5a8 <RxHandler+0x94>)
     568:	f004 fea5 	bl	52b6 <USBBufferFlush>

            break;
     56c:	e010      	b.n	590 <RxHandler+0x7c>
        //
        // The host has disconnected.
        //
        case USB_EVENT_DISCONNECTED:
        {
            g_bUSBConfigured = false;
     56e:	4b0b      	ldr	r3, [pc, #44]	; (59c <RxHandler+0x88>)
     570:	2200      	movs	r2, #0
     572:	701a      	strb	r2, [r3, #0]
            printf("Host disconnected.\r\n");
     574:	480d      	ldr	r0, [pc, #52]	; (5ac <RxHandler+0x98>)
     576:	f000 fc19 	bl	dac <iprintf>
            break;
     57a:	e009      	b.n	590 <RxHandler+0x7c>

            //
            // Get a pointer to our instance data from the callback data
            // parameter.
            //
            psDevice = (tUSBDBulkDevice *)pvCBData;
     57c:	68fb      	ldr	r3, [r7, #12]
     57e:	617b      	str	r3, [r7, #20]

            //
            // Read the new packet and echo it back to the host.
            //
            return(EchoNewDataToHost(psDevice, pvMsgData, ulMsgValue));
     580:	687a      	ldr	r2, [r7, #4]
     582:	6839      	ldr	r1, [r7, #0]
     584:	6978      	ldr	r0, [r7, #20]
     586:	f7ff ff1d 	bl	3c4 <EchoNewDataToHost>
     58a:	4603      	mov	r3, r0
     58c:	e001      	b.n	592 <RxHandler+0x7e>
        //
        // Ignore all other events and return 0.
        //
        default:
        {
            break;
     58e:	bf00      	nop
        }
    }

    return(0);
     590:	2300      	movs	r3, #0
}
     592:	4618      	mov	r0, r3
     594:	3718      	adds	r7, #24
     596:	46bd      	mov	sp, r7
     598:	bd80      	pop	{r7, pc}
     59a:	bf00      	nop
     59c:	20000e30 	.word	0x20000e30
     5a0:	00006698 	.word	0x00006698
     5a4:	000068c4 	.word	0x000068c4
     5a8:	000068a0 	.word	0x000068a0
     5ac:	000066ac 	.word	0x000066ac

000005b0 <main>:
// This is the main application entry function.
//
//*****************************************************************************
int
main(void)
{
     5b0:	b590      	push	{r4, r7, lr}
     5b2:	b085      	sub	sp, #20
     5b4:	af00      	add	r7, sp, #0
    //
    // Enable lazy stacking for interrupt handlers.  This allows floating-point
    // instructions to be used within interrupt handlers, but at the expense of
    // extra stack usage.
    //
    ROM_FPULazyStackingEnable();
     5b6:	4b62      	ldr	r3, [pc, #392]	; (740 <main+0x190>)
     5b8:	681b      	ldr	r3, [r3, #0]
     5ba:	3310      	adds	r3, #16
     5bc:	681b      	ldr	r3, [r3, #0]
     5be:	4798      	blx	r3

    //
    // Set the clocking to run from the PLL at 50MHz
    //
    ROM_SysCtlClockSet(SYSCTL_SYSDIV_4 | SYSCTL_USE_PLL | SYSCTL_OSC_MAIN |
     5c0:	4b60      	ldr	r3, [pc, #384]	; (744 <main+0x194>)
     5c2:	681b      	ldr	r3, [r3, #0]
     5c4:	335c      	adds	r3, #92	; 0x5c
     5c6:	681b      	ldr	r3, [r3, #0]
     5c8:	485f      	ldr	r0, [pc, #380]	; (748 <main+0x198>)
     5ca:	4798      	blx	r3
                       SYSCTL_XTAL_16MHZ);

    //
    // Configure the relevant pins such that UART0 owns them.
    //
    ROM_SysCtlPeripheralEnable(SYSCTL_PERIPH_GPIOA);
     5cc:	4b5d      	ldr	r3, [pc, #372]	; (744 <main+0x194>)
     5ce:	681b      	ldr	r3, [r3, #0]
     5d0:	3318      	adds	r3, #24
     5d2:	681b      	ldr	r3, [r3, #0]
     5d4:	485d      	ldr	r0, [pc, #372]	; (74c <main+0x19c>)
     5d6:	4798      	blx	r3
    GPIOPinConfigure(GPIO_PA0_U0RX);
     5d8:	2001      	movs	r0, #1
     5da:	f005 fd85 	bl	60e8 <GPIOPinConfigure>
    GPIOPinConfigure(GPIO_PA1_U0TX);
     5de:	f240 4001 	movw	r0, #1025	; 0x401
     5e2:	f005 fd81 	bl	60e8 <GPIOPinConfigure>
    ROM_GPIOPinTypeUART(GPIO_PORTA_BASE, GPIO_PIN_0 | GPIO_PIN_1);
     5e6:	4b5a      	ldr	r3, [pc, #360]	; (750 <main+0x1a0>)
     5e8:	681b      	ldr	r3, [r3, #0]
     5ea:	3354      	adds	r3, #84	; 0x54
     5ec:	681b      	ldr	r3, [r3, #0]
     5ee:	2103      	movs	r1, #3
     5f0:	f04f 2040 	mov.w	r0, #1073758208	; 0x40004000
     5f4:	4798      	blx	r3

    //
    // Enable the GPIO port that is used for the on-board LED.
    //
    ROM_SysCtlPeripheralEnable(SYSCTL_PERIPH_GPIOF);
     5f6:	4b53      	ldr	r3, [pc, #332]	; (744 <main+0x194>)
     5f8:	681b      	ldr	r3, [r3, #0]
     5fa:	3318      	adds	r3, #24
     5fc:	681b      	ldr	r3, [r3, #0]
     5fe:	4855      	ldr	r0, [pc, #340]	; (754 <main+0x1a4>)
     600:	4798      	blx	r3

    //
    // Enable the GPIO pins for the LED (PF2 & PF3).  
    //
    ROM_GPIOPinTypeGPIOOutput(GPIO_PORTF_BASE, GPIO_PIN_3|GPIO_PIN_2);
     602:	4b53      	ldr	r3, [pc, #332]	; (750 <main+0x1a0>)
     604:	681b      	ldr	r3, [r3, #0]
     606:	333c      	adds	r3, #60	; 0x3c
     608:	681b      	ldr	r3, [r3, #0]
     60a:	210c      	movs	r1, #12
     60c:	4852      	ldr	r0, [pc, #328]	; (758 <main+0x1a8>)
     60e:	4798      	blx	r3

    
    //
    // Open UART0 and show the application name on the UART.
    //
    UARTStdioInit(0);
     610:	2000      	movs	r0, #0
     612:	f000 fa1d 	bl	a50 <UARTStdioInit>
    printf("\033[2JStellaris USB bulk device example\r\n");
     616:	4851      	ldr	r0, [pc, #324]	; (75c <main+0x1ac>)
     618:	f000 fbc8 	bl	dac <iprintf>
    printf("---------------------------------\r\n");
     61c:	4850      	ldr	r0, [pc, #320]	; (760 <main+0x1b0>)
     61e:	f000 fbc5 	bl	dac <iprintf>


    printf("helloworld.\r\n");
     622:	4850      	ldr	r0, [pc, #320]	; (764 <main+0x1b4>)
     624:	f000 fbc2 	bl	dac <iprintf>

    //
    // Not configured initially.
    //
    g_bUSBConfigured = false;
     628:	4b4f      	ldr	r3, [pc, #316]	; (768 <main+0x1b8>)
     62a:	2200      	movs	r2, #0
     62c:	701a      	strb	r2, [r3, #0]

    //
    // Enable the GPIO peripheral used for USB, and configure the USB
    // pins.
    //
    ROM_SysCtlPeripheralEnable(SYSCTL_PERIPH_GPIOD);
     62e:	4b45      	ldr	r3, [pc, #276]	; (744 <main+0x194>)
     630:	681b      	ldr	r3, [r3, #0]
     632:	3318      	adds	r3, #24
     634:	681b      	ldr	r3, [r3, #0]
     636:	484d      	ldr	r0, [pc, #308]	; (76c <main+0x1bc>)
     638:	4798      	blx	r3
    ROM_GPIOPinTypeUSBAnalog(GPIO_PORTD_BASE, GPIO_PIN_4 | GPIO_PIN_5);
     63a:	4b45      	ldr	r3, [pc, #276]	; (750 <main+0x1a0>)
     63c:	681b      	ldr	r3, [r3, #0]
     63e:	3370      	adds	r3, #112	; 0x70
     640:	681b      	ldr	r3, [r3, #0]
     642:	2130      	movs	r1, #48	; 0x30
     644:	484a      	ldr	r0, [pc, #296]	; (770 <main+0x1c0>)
     646:	4798      	blx	r3

    //
    // Enable the system tick.
    //
    ROM_SysTickPeriodSet(ROM_SysCtlClockGet() / SYSTICKS_PER_SECOND);
     648:	4b4a      	ldr	r3, [pc, #296]	; (774 <main+0x1c4>)
     64a:	681b      	ldr	r3, [r3, #0]
     64c:	3314      	adds	r3, #20
     64e:	681b      	ldr	r3, [r3, #0]
     650:	461c      	mov	r4, r3
     652:	4b3c      	ldr	r3, [pc, #240]	; (744 <main+0x194>)
     654:	681b      	ldr	r3, [r3, #0]
     656:	3360      	adds	r3, #96	; 0x60
     658:	681b      	ldr	r3, [r3, #0]
     65a:	4798      	blx	r3
     65c:	4602      	mov	r2, r0
     65e:	4b46      	ldr	r3, [pc, #280]	; (778 <main+0x1c8>)
     660:	fba3 2302 	umull	r2, r3, r3, r2
     664:	095b      	lsrs	r3, r3, #5
     666:	4618      	mov	r0, r3
     668:	47a0      	blx	r4
    ROM_SysTickIntEnable();
     66a:	4b42      	ldr	r3, [pc, #264]	; (774 <main+0x1c4>)
     66c:	681b      	ldr	r3, [r3, #0]
     66e:	330c      	adds	r3, #12
     670:	681b      	ldr	r3, [r3, #0]
     672:	4798      	blx	r3
    ROM_SysTickEnable();
     674:	4b3f      	ldr	r3, [pc, #252]	; (774 <main+0x1c4>)
     676:	681b      	ldr	r3, [r3, #0]
     678:	3304      	adds	r3, #4
     67a:	681b      	ldr	r3, [r3, #0]
     67c:	4798      	blx	r3

    //
    // Tell the user what we are up to.
    //
    printf("Configuring USB\r\n");
     67e:	483f      	ldr	r0, [pc, #252]	; (77c <main+0x1cc>)
     680:	f000 fb94 	bl	dac <iprintf>

    //
    // Initialize the transmit and receive buffers.
    //
    USBBufferInit((tUSBBuffer *)&g_sTxBuffer);
     684:	483e      	ldr	r0, [pc, #248]	; (780 <main+0x1d0>)
     686:	f004 fdd5 	bl	5234 <USBBufferInit>
    USBBufferInit((tUSBBuffer *)&g_sRxBuffer);
     68a:	483e      	ldr	r0, [pc, #248]	; (784 <main+0x1d4>)
     68c:	f004 fdd2 	bl	5234 <USBBufferInit>

    //
    // Set the USB stack mode to Device mode with VBUS monitoring.
    //
    USBStackModeSet(0, USB_MODE_FORCE_DEVICE, 0);
     690:	2200      	movs	r2, #0
     692:	2105      	movs	r1, #5
     694:	2000      	movs	r0, #0
     696:	f004 fe7d 	bl	5394 <USBStackModeSet>

    //
    // Pass our device information to the USB library and place the device
    // on the bus.
    //
    USBDBulkInit(0, (tUSBDBulkDevice *)&g_sBulkDevice);
     69a:	493b      	ldr	r1, [pc, #236]	; (788 <main+0x1d8>)
     69c:	2000      	movs	r0, #0
     69e:	f003 fa5d 	bl	3b5c <USBDBulkInit>

    //
    // Wait for initial configuration to complete.
    //
    printf("Waiting for host...\r\n");
     6a2:	483a      	ldr	r0, [pc, #232]	; (78c <main+0x1dc>)
     6a4:	f000 fb82 	bl	dac <iprintf>

    //
    // Clear our local byte counters.
    //
    ulRxCount = 0;
     6a8:	2300      	movs	r3, #0
     6aa:	60bb      	str	r3, [r7, #8]
    ulTxCount = 0;
     6ac:	2300      	movs	r3, #0
     6ae:	60fb      	str	r3, [r7, #12]
    while(1)
    {
        //
        // See if any data has been transferred.
        //
        if((ulTxCount != g_ulTxCount) || (ulRxCount != g_ulRxCount))
     6b0:	4b37      	ldr	r3, [pc, #220]	; (790 <main+0x1e0>)
     6b2:	681b      	ldr	r3, [r3, #0]
     6b4:	68fa      	ldr	r2, [r7, #12]
     6b6:	429a      	cmp	r2, r3
     6b8:	d104      	bne.n	6c4 <main+0x114>
     6ba:	4b36      	ldr	r3, [pc, #216]	; (794 <main+0x1e4>)
     6bc:	681b      	ldr	r3, [r3, #0]
     6be:	68ba      	ldr	r2, [r7, #8]
     6c0:	429a      	cmp	r2, r3
     6c2:	d0f5      	beq.n	6b0 <main+0x100>
        {
            //
            // Has there been any transmit traffic since we last checked?
            //
            if(ulTxCount != g_ulTxCount)
     6c4:	4b32      	ldr	r3, [pc, #200]	; (790 <main+0x1e0>)
     6c6:	681b      	ldr	r3, [r3, #0]
     6c8:	68fa      	ldr	r2, [r7, #12]
     6ca:	429a      	cmp	r2, r3
     6cc:	d016      	beq.n	6fc <main+0x14c>
            {
                //
                // Turn on the Green LED.
                //
                GPIOPinWrite(GPIO_PORTF_BASE, GPIO_PIN_3, GPIO_PIN_3);
     6ce:	2208      	movs	r2, #8
     6d0:	2108      	movs	r1, #8
     6d2:	4821      	ldr	r0, [pc, #132]	; (758 <main+0x1a8>)
     6d4:	f005 fcf1 	bl	60ba <GPIOPinWrite>

                //
                // Delay for a bit.
                //
                for(ulLoop = 0; ulLoop < 150000; ulLoop++)
     6d8:	2300      	movs	r3, #0
     6da:	607b      	str	r3, [r7, #4]
     6dc:	e002      	b.n	6e4 <main+0x134>
     6de:	687b      	ldr	r3, [r7, #4]
     6e0:	3301      	adds	r3, #1
     6e2:	607b      	str	r3, [r7, #4]
     6e4:	687b      	ldr	r3, [r7, #4]
     6e6:	4a2c      	ldr	r2, [pc, #176]	; (798 <main+0x1e8>)
     6e8:	4293      	cmp	r3, r2
     6ea:	d9f8      	bls.n	6de <main+0x12e>
                }
            
                //
                // Turn off the Green LED.
                //
                GPIOPinWrite(GPIO_PORTF_BASE, GPIO_PIN_3, 0);
     6ec:	2200      	movs	r2, #0
     6ee:	2108      	movs	r1, #8
     6f0:	4819      	ldr	r0, [pc, #100]	; (758 <main+0x1a8>)
     6f2:	f005 fce2 	bl	60ba <GPIOPinWrite>
                
                //
                // Take a snapshot of the latest transmit count.
                //
                ulTxCount = g_ulTxCount;
     6f6:	4b26      	ldr	r3, [pc, #152]	; (790 <main+0x1e0>)
     6f8:	681b      	ldr	r3, [r3, #0]
     6fa:	60fb      	str	r3, [r7, #12]
            }

            //
            // Has there been any receive traffic since we last checked?
            //
            if(ulRxCount != g_ulRxCount)
     6fc:	4b25      	ldr	r3, [pc, #148]	; (794 <main+0x1e4>)
     6fe:	681b      	ldr	r3, [r3, #0]
     700:	68ba      	ldr	r2, [r7, #8]
     702:	429a      	cmp	r2, r3
     704:	d016      	beq.n	734 <main+0x184>
            {
                //
                // Turn on the Blue LED.
                //
                GPIOPinWrite(GPIO_PORTF_BASE, GPIO_PIN_2, GPIO_PIN_2);
     706:	2204      	movs	r2, #4
     708:	2104      	movs	r1, #4
     70a:	4813      	ldr	r0, [pc, #76]	; (758 <main+0x1a8>)
     70c:	f005 fcd5 	bl	60ba <GPIOPinWrite>

                //
                // Delay for a bit.
                //
                for(ulLoop = 0; ulLoop < 150000; ulLoop++)
     710:	2300      	movs	r3, #0
     712:	607b      	str	r3, [r7, #4]
     714:	e002      	b.n	71c <main+0x16c>
     716:	687b      	ldr	r3, [r7, #4]
     718:	3301      	adds	r3, #1
     71a:	607b      	str	r3, [r7, #4]
     71c:	687b      	ldr	r3, [r7, #4]
     71e:	4a1e      	ldr	r2, [pc, #120]	; (798 <main+0x1e8>)
     720:	4293      	cmp	r3, r2
     722:	d9f8      	bls.n	716 <main+0x166>
                }
            
                //
                // Turn off the Blue LED.
                //
                GPIOPinWrite(GPIO_PORTF_BASE, GPIO_PIN_2, 0);
     724:	2200      	movs	r2, #0
     726:	2104      	movs	r1, #4
     728:	480b      	ldr	r0, [pc, #44]	; (758 <main+0x1a8>)
     72a:	f005 fcc6 	bl	60ba <GPIOPinWrite>

                //
                // Take a snapshot of the latest receive count.
                //
                ulRxCount = g_ulRxCount;
     72e:	4b19      	ldr	r3, [pc, #100]	; (794 <main+0x1e4>)
     730:	681b      	ldr	r3, [r3, #0]
     732:	60bb      	str	r3, [r7, #8]
            }

            //
            // Update the display of bytes transferred.
            //
            printf("\rTx: %d  Rx: %d", ulTxCount, ulRxCount);
     734:	68ba      	ldr	r2, [r7, #8]
     736:	68f9      	ldr	r1, [r7, #12]
     738:	4818      	ldr	r0, [pc, #96]	; (79c <main+0x1ec>)
     73a:	f000 fb37 	bl	dac <iprintf>
        if((ulTxCount != g_ulTxCount) || (ulRxCount != g_ulRxCount))
     73e:	e7b7      	b.n	6b0 <main+0x100>
     740:	01000078 	.word	0x01000078
     744:	01000044 	.word	0x01000044
     748:	01c00540 	.word	0x01c00540
     74c:	20000001 	.word	0x20000001
     750:	01000020 	.word	0x01000020
     754:	20000020 	.word	0x20000020
     758:	40025000 	.word	0x40025000
     75c:	000066c4 	.word	0x000066c4
     760:	000066ec 	.word	0x000066ec
     764:	00006710 	.word	0x00006710
     768:	20000e30 	.word	0x20000e30
     76c:	20000008 	.word	0x20000008
     770:	40007000 	.word	0x40007000
     774:	01000038 	.word	0x01000038
     778:	51eb851f 	.word	0x51eb851f
     77c:	00006720 	.word	0x00006720
     780:	000068c4 	.word	0x000068c4
     784:	000068a0 	.word	0x000068a0
     788:	0000687c 	.word	0x0000687c
     78c:	00006734 	.word	0x00006734
     790:	20000e28 	.word	0x20000e28
     794:	20000e2c 	.word	0x20000e2c
     798:	000249ef 	.word	0x000249ef
     79c:	0000674c 	.word	0x0000674c

000007a0 <_write>:
#include "inc/hw_memmap.h"
#include "driverlib/rom.h"

#ifdef __GNUC__
int _write(int fd, char *ptr, int len)
{
     7a0:	b590      	push	{r4, r7, lr}
     7a2:	b087      	sub	sp, #28
     7a4:	af00      	add	r7, sp, #0
     7a6:	60f8      	str	r0, [r7, #12]
     7a8:	60b9      	str	r1, [r7, #8]
     7aa:	607a      	str	r2, [r7, #4]
    int count=len;
     7ac:	687b      	ldr	r3, [r7, #4]
     7ae:	617b      	str	r3, [r7, #20]
    while(count--)
     7b0:	e00a      	b.n	7c8 <_write+0x28>
    {
        ROM_UARTCharPut(UART0_BASE, *ptr++);
     7b2:	4b0a      	ldr	r3, [pc, #40]	; (7dc <_write+0x3c>)
     7b4:	681b      	ldr	r3, [r3, #0]
     7b6:	681b      	ldr	r3, [r3, #0]
     7b8:	461c      	mov	r4, r3
     7ba:	68bb      	ldr	r3, [r7, #8]
     7bc:	1c5a      	adds	r2, r3, #1
     7be:	60ba      	str	r2, [r7, #8]
     7c0:	781b      	ldrb	r3, [r3, #0]
     7c2:	4619      	mov	r1, r3
     7c4:	4806      	ldr	r0, [pc, #24]	; (7e0 <_write+0x40>)
     7c6:	47a0      	blx	r4
    while(count--)
     7c8:	697b      	ldr	r3, [r7, #20]
     7ca:	1e5a      	subs	r2, r3, #1
     7cc:	617a      	str	r2, [r7, #20]
     7ce:	2b00      	cmp	r3, #0
     7d0:	d1ef      	bne.n	7b2 <_write+0x12>
    }
    return len;
     7d2:	687b      	ldr	r3, [r7, #4]
}
     7d4:	4618      	mov	r0, r3
     7d6:	371c      	adds	r7, #28
     7d8:	46bd      	mov	sp, r7
     7da:	bd90      	pop	{r4, r7, pc}
     7dc:	01000014 	.word	0x01000014
     7e0:	4000c000 	.word	0x4000c000

000007e4 <_sbrk>:
#endif

caddr_t _sbrk(int incr)
{
     7e4:	b480      	push	{r7}
     7e6:	b083      	sub	sp, #12
     7e8:	af00      	add	r7, sp, #0
     7ea:	6078      	str	r0, [r7, #4]
    return (caddr_t) 0;
     7ec:	2300      	movs	r3, #0
}
     7ee:	4618      	mov	r0, r3
     7f0:	370c      	adds	r7, #12
     7f2:	46bd      	mov	sp, r7
     7f4:	f85d 7b04 	ldr.w	r7, [sp], #4
     7f8:	4770      	bx	lr

000007fa <_fstat>:

int _fstat(int file, struct stat *st)
{
     7fa:	b480      	push	{r7}
     7fc:	b083      	sub	sp, #12
     7fe:	af00      	add	r7, sp, #0
     800:	6078      	str	r0, [r7, #4]
     802:	6039      	str	r1, [r7, #0]
    return 0;
     804:	2300      	movs	r3, #0
}
     806:	4618      	mov	r0, r3
     808:	370c      	adds	r7, #12
     80a:	46bd      	mov	sp, r7
     80c:	f85d 7b04 	ldr.w	r7, [sp], #4
     810:	4770      	bx	lr

00000812 <_read>:

int _read(int file, char *ptr, int len)
{
     812:	b480      	push	{r7}
     814:	b085      	sub	sp, #20
     816:	af00      	add	r7, sp, #0
     818:	60f8      	str	r0, [r7, #12]
     81a:	60b9      	str	r1, [r7, #8]
     81c:	607a      	str	r2, [r7, #4]
    return 0;
     81e:	2300      	movs	r3, #0
     820:	4618      	mov	r0, r3
     822:	3714      	adds	r7, #20
     824:	46bd      	mov	sp, r7
     826:	f85d 7b04 	ldr.w	r7, [sp], #4
     82a:	4770      	bx	lr

0000082c <IsBufferFull>:
//*****************************************************************************
#ifdef UART_BUFFERED
static tBoolean
IsBufferFull(volatile unsigned long *pulRead,
             volatile unsigned long *pulWrite, unsigned long ulSize)
{
     82c:	b480      	push	{r7}
     82e:	b087      	sub	sp, #28
     830:	af00      	add	r7, sp, #0
     832:	60f8      	str	r0, [r7, #12]
     834:	60b9      	str	r1, [r7, #8]
     836:	607a      	str	r2, [r7, #4]
    unsigned long ulWrite;
    unsigned long ulRead;

    ulWrite = *pulWrite;
     838:	68bb      	ldr	r3, [r7, #8]
     83a:	681b      	ldr	r3, [r3, #0]
     83c:	617b      	str	r3, [r7, #20]
    ulRead = *pulRead;
     83e:	68fb      	ldr	r3, [r7, #12]
     840:	681b      	ldr	r3, [r3, #0]
     842:	613b      	str	r3, [r7, #16]

    return((((ulWrite + 1) % ulSize) == ulRead) ? true : false);
     844:	697b      	ldr	r3, [r7, #20]
     846:	3301      	adds	r3, #1
     848:	687a      	ldr	r2, [r7, #4]
     84a:	fbb3 f2f2 	udiv	r2, r3, r2
     84e:	6879      	ldr	r1, [r7, #4]
     850:	fb01 f202 	mul.w	r2, r1, r2
     854:	1a9b      	subs	r3, r3, r2
     856:	693a      	ldr	r2, [r7, #16]
     858:	429a      	cmp	r2, r3
     85a:	bf0c      	ite	eq
     85c:	2301      	moveq	r3, #1
     85e:	2300      	movne	r3, #0
     860:	b2db      	uxtb	r3, r3
}
     862:	4618      	mov	r0, r3
     864:	371c      	adds	r7, #28
     866:	46bd      	mov	sp, r7
     868:	f85d 7b04 	ldr.w	r7, [sp], #4
     86c:	4770      	bx	lr

0000086e <IsBufferEmpty>:
//*****************************************************************************
#ifdef UART_BUFFERED
static tBoolean
IsBufferEmpty(volatile unsigned long *pulRead,
              volatile unsigned long *pulWrite)
{
     86e:	b480      	push	{r7}
     870:	b085      	sub	sp, #20
     872:	af00      	add	r7, sp, #0
     874:	6078      	str	r0, [r7, #4]
     876:	6039      	str	r1, [r7, #0]
    unsigned long ulWrite;
    unsigned long ulRead;

    ulWrite = *pulWrite;
     878:	683b      	ldr	r3, [r7, #0]
     87a:	681b      	ldr	r3, [r3, #0]
     87c:	60fb      	str	r3, [r7, #12]
    ulRead = *pulRead;
     87e:	687b      	ldr	r3, [r7, #4]
     880:	681b      	ldr	r3, [r3, #0]
     882:	60bb      	str	r3, [r7, #8]

    return((ulWrite  == ulRead) ? true : false);
     884:	68fa      	ldr	r2, [r7, #12]
     886:	68bb      	ldr	r3, [r7, #8]
     888:	429a      	cmp	r2, r3
     88a:	bf0c      	ite	eq
     88c:	2301      	moveq	r3, #1
     88e:	2300      	movne	r3, #0
     890:	b2db      	uxtb	r3, r3
}
     892:	4618      	mov	r0, r3
     894:	3714      	adds	r7, #20
     896:	46bd      	mov	sp, r7
     898:	f85d 7b04 	ldr.w	r7, [sp], #4
     89c:	4770      	bx	lr
	...

000008a0 <UARTPrimeTransmit>:
//
//*****************************************************************************
#ifdef UART_BUFFERED
static void
UARTPrimeTransmit(unsigned long ulBase)
{
     8a0:	b590      	push	{r4, r7, lr}
     8a2:	b083      	sub	sp, #12
     8a4:	af00      	add	r7, sp, #0
     8a6:	6078      	str	r0, [r7, #4]
    //
    // Do we have any data to transmit?
    //
    if(!TX_BUFFER_EMPTY)
     8a8:	4922      	ldr	r1, [pc, #136]	; (934 <UARTPrimeTransmit+0x94>)
     8aa:	4823      	ldr	r0, [pc, #140]	; (938 <UARTPrimeTransmit+0x98>)
     8ac:	f7ff ffdf 	bl	86e <IsBufferEmpty>
     8b0:	4603      	mov	r3, r0
     8b2:	2b00      	cmp	r3, #0
     8b4:	d13a      	bne.n	92c <UARTPrimeTransmit+0x8c>
    {
        //
        // Disable the UART interrupt. If we don't do this there is a race
        // condition which can cause the read index to be corrupted.
        //
        MAP_IntDisable(g_ulUARTInt[g_ulPortNum]);
     8b6:	4b21      	ldr	r3, [pc, #132]	; (93c <UARTPrimeTransmit+0x9c>)
     8b8:	681b      	ldr	r3, [r3, #0]
     8ba:	330c      	adds	r3, #12
     8bc:	681b      	ldr	r3, [r3, #0]
     8be:	4619      	mov	r1, r3
     8c0:	4b1f      	ldr	r3, [pc, #124]	; (940 <UARTPrimeTransmit+0xa0>)
     8c2:	681b      	ldr	r3, [r3, #0]
     8c4:	4a1f      	ldr	r2, [pc, #124]	; (944 <UARTPrimeTransmit+0xa4>)
     8c6:	f852 3023 	ldr.w	r3, [r2, r3, lsl #2]
     8ca:	4618      	mov	r0, r3
     8cc:	4788      	blx	r1

        //
        // Yes - take some characters out of the transmit buffer and feed
        // them to the UART transmit FIFO.
        //
        while(MAP_UARTSpaceAvail(ulBase) && !TX_BUFFER_EMPTY)
     8ce:	e012      	b.n	8f6 <UARTPrimeTransmit+0x56>
        {
            MAP_UARTCharPutNonBlocking(ulBase,
     8d0:	4b1d      	ldr	r3, [pc, #116]	; (948 <UARTPrimeTransmit+0xa8>)
     8d2:	681b      	ldr	r3, [r3, #0]
     8d4:	333c      	adds	r3, #60	; 0x3c
     8d6:	681b      	ldr	r3, [r3, #0]
     8d8:	461c      	mov	r4, r3
     8da:	4b17      	ldr	r3, [pc, #92]	; (938 <UARTPrimeTransmit+0x98>)
     8dc:	681b      	ldr	r3, [r3, #0]
     8de:	4a1b      	ldr	r2, [pc, #108]	; (94c <UARTPrimeTransmit+0xac>)
     8e0:	5cd3      	ldrb	r3, [r2, r3]
     8e2:	4619      	mov	r1, r3
     8e4:	6878      	ldr	r0, [r7, #4]
     8e6:	47a0      	blx	r4
                                       g_pcUARTTxBuffer[g_ulUARTTxReadIndex]);
            ADVANCE_TX_BUFFER_INDEX(g_ulUARTTxReadIndex);
     8e8:	4b13      	ldr	r3, [pc, #76]	; (938 <UARTPrimeTransmit+0x98>)
     8ea:	681b      	ldr	r3, [r3, #0]
     8ec:	3301      	adds	r3, #1
     8ee:	f3c3 0309 	ubfx	r3, r3, #0, #10
     8f2:	4a11      	ldr	r2, [pc, #68]	; (938 <UARTPrimeTransmit+0x98>)
     8f4:	6013      	str	r3, [r2, #0]
        while(MAP_UARTSpaceAvail(ulBase) && !TX_BUFFER_EMPTY)
     8f6:	4b14      	ldr	r3, [pc, #80]	; (948 <UARTPrimeTransmit+0xa8>)
     8f8:	681b      	ldr	r3, [r3, #0]
     8fa:	3330      	adds	r3, #48	; 0x30
     8fc:	681b      	ldr	r3, [r3, #0]
     8fe:	6878      	ldr	r0, [r7, #4]
     900:	4798      	blx	r3
     902:	4603      	mov	r3, r0
     904:	2b00      	cmp	r3, #0
     906:	d006      	beq.n	916 <UARTPrimeTransmit+0x76>
     908:	490a      	ldr	r1, [pc, #40]	; (934 <UARTPrimeTransmit+0x94>)
     90a:	480b      	ldr	r0, [pc, #44]	; (938 <UARTPrimeTransmit+0x98>)
     90c:	f7ff ffaf 	bl	86e <IsBufferEmpty>
     910:	4603      	mov	r3, r0
     912:	2b00      	cmp	r3, #0
     914:	d0dc      	beq.n	8d0 <UARTPrimeTransmit+0x30>
        }

        //
        // Reenable the UART interrupt.
        //
        MAP_IntEnable(g_ulUARTInt[g_ulPortNum]);
     916:	4b09      	ldr	r3, [pc, #36]	; (93c <UARTPrimeTransmit+0x9c>)
     918:	681b      	ldr	r3, [r3, #0]
     91a:	681b      	ldr	r3, [r3, #0]
     91c:	4619      	mov	r1, r3
     91e:	4b08      	ldr	r3, [pc, #32]	; (940 <UARTPrimeTransmit+0xa0>)
     920:	681b      	ldr	r3, [r3, #0]
     922:	4a08      	ldr	r2, [pc, #32]	; (944 <UARTPrimeTransmit+0xa4>)
     924:	f852 3023 	ldr.w	r3, [r2, r3, lsl #2]
     928:	4618      	mov	r0, r3
     92a:	4788      	blx	r1
    }
}
     92c:	bf00      	nop
     92e:	370c      	adds	r7, #12
     930:	46bd      	mov	sp, r7
     932:	bd90      	pop	{r4, r7, pc}
     934:	20001234 	.word	0x20001234
     938:	20001238 	.word	0x20001238
     93c:	01000048 	.word	0x01000048
     940:	200012c8 	.word	0x200012c8
     944:	00006790 	.word	0x00006790
     948:	01000014 	.word	0x01000014
     94c:	20000e34 	.word	0x20000e34

00000950 <UARTStdioConfig>:
//
//*****************************************************************************
void
UARTStdioConfig(unsigned long ulPortNum, unsigned long ulBaud,
                unsigned long ulSrcClock)
{
     950:	b590      	push	{r4, r7, lr}
     952:	b085      	sub	sp, #20
     954:	af00      	add	r7, sp, #0
     956:	60f8      	str	r0, [r7, #12]
     958:	60b9      	str	r1, [r7, #8]
     95a:	607a      	str	r2, [r7, #4]
#endif

    //
    // Check to make sure the UART peripheral is present.
    //
    if(!MAP_SysCtlPeripheralPresent(g_ulUARTPeriph[ulPortNum]))
     95c:	4b34      	ldr	r3, [pc, #208]	; (a30 <UARTStdioConfig+0xe0>)
     95e:	681b      	ldr	r3, [r3, #0]
     960:	3310      	adds	r3, #16
     962:	681b      	ldr	r3, [r3, #0]
     964:	4619      	mov	r1, r3
     966:	4a33      	ldr	r2, [pc, #204]	; (a34 <UARTStdioConfig+0xe4>)
     968:	68fb      	ldr	r3, [r7, #12]
     96a:	f852 3023 	ldr.w	r3, [r2, r3, lsl #2]
     96e:	4618      	mov	r0, r3
     970:	4788      	blx	r1
     972:	4603      	mov	r3, r0
     974:	2b00      	cmp	r3, #0
     976:	d057      	beq.n	a28 <UARTStdioConfig+0xd8>
    }

    //
    // Select the base address of the UART.
    //
    g_ulBase = g_ulUARTBase[ulPortNum];
     978:	4a2f      	ldr	r2, [pc, #188]	; (a38 <UARTStdioConfig+0xe8>)
     97a:	68fb      	ldr	r3, [r7, #12]
     97c:	f852 3023 	ldr.w	r3, [r2, r3, lsl #2]
     980:	4a2e      	ldr	r2, [pc, #184]	; (a3c <UARTStdioConfig+0xec>)
     982:	6013      	str	r3, [r2, #0]

    //
    // Enable the UART peripheral for use.
    //
    MAP_SysCtlPeripheralEnable(g_ulUARTPeriph[ulPortNum]);
     984:	4b2a      	ldr	r3, [pc, #168]	; (a30 <UARTStdioConfig+0xe0>)
     986:	681b      	ldr	r3, [r3, #0]
     988:	3318      	adds	r3, #24
     98a:	681b      	ldr	r3, [r3, #0]
     98c:	4619      	mov	r1, r3
     98e:	4a29      	ldr	r2, [pc, #164]	; (a34 <UARTStdioConfig+0xe4>)
     990:	68fb      	ldr	r3, [r7, #12]
     992:	f852 3023 	ldr.w	r3, [r2, r3, lsl #2]
     996:	4618      	mov	r0, r3
     998:	4788      	blx	r1

    //
    // Configure the UART for 115200, n, 8, 1
    //
    MAP_UARTConfigSetExpClk(g_ulBase, ulSrcClock, ulBaud,
     99a:	4b29      	ldr	r3, [pc, #164]	; (a40 <UARTStdioConfig+0xf0>)
     99c:	681b      	ldr	r3, [r3, #0]
     99e:	3314      	adds	r3, #20
     9a0:	681b      	ldr	r3, [r3, #0]
     9a2:	461c      	mov	r4, r3
     9a4:	4b25      	ldr	r3, [pc, #148]	; (a3c <UARTStdioConfig+0xec>)
     9a6:	6818      	ldr	r0, [r3, #0]
     9a8:	2360      	movs	r3, #96	; 0x60
     9aa:	68ba      	ldr	r2, [r7, #8]
     9ac:	6879      	ldr	r1, [r7, #4]
     9ae:	47a0      	blx	r4
#ifdef UART_BUFFERED
    //
    // Set the UART to interrupt whenever the TX FIFO is almost empty or
    // when any character is received.
    //
    MAP_UARTFIFOLevelSet(g_ulBase, UART_FIFO_TX1_8, UART_FIFO_RX1_8);
     9b0:	4b23      	ldr	r3, [pc, #140]	; (a40 <UARTStdioConfig+0xf0>)
     9b2:	681b      	ldr	r3, [r3, #0]
     9b4:	330c      	adds	r3, #12
     9b6:	681b      	ldr	r3, [r3, #0]
     9b8:	461c      	mov	r4, r3
     9ba:	4b20      	ldr	r3, [pc, #128]	; (a3c <UARTStdioConfig+0xec>)
     9bc:	681b      	ldr	r3, [r3, #0]
     9be:	2200      	movs	r2, #0
     9c0:	2100      	movs	r1, #0
     9c2:	4618      	mov	r0, r3
     9c4:	47a0      	blx	r4

    //
    // Flush both the buffers.
    //
    UARTFlushRx();
     9c6:	f000 f8c5 	bl	b54 <UARTFlushRx>
    UARTFlushTx(true);
     9ca:	2001      	movs	r0, #1
     9cc:	f000 f8e4 	bl	b98 <UARTFlushTx>

    //
    // Remember which interrupt we are dealing with.
    //
    g_ulPortNum = ulPortNum;
     9d0:	4a1c      	ldr	r2, [pc, #112]	; (a44 <UARTStdioConfig+0xf4>)
     9d2:	68fb      	ldr	r3, [r7, #12]
     9d4:	6013      	str	r3, [r2, #0]
    // We are configured for buffered output so enable the master interrupt
    // for this UART and the receive interrupts.  We don't actually enable the
    // transmit interrupt in the UART itself until some data has been placed
    // in the transmit buffer.
    //
    MAP_UARTIntDisable(g_ulBase, 0xFFFFFFFF);
     9d6:	4b1a      	ldr	r3, [pc, #104]	; (a40 <UARTStdioConfig+0xf0>)
     9d8:	681b      	ldr	r3, [r3, #0]
     9da:	3348      	adds	r3, #72	; 0x48
     9dc:	681b      	ldr	r3, [r3, #0]
     9de:	461a      	mov	r2, r3
     9e0:	4b16      	ldr	r3, [pc, #88]	; (a3c <UARTStdioConfig+0xec>)
     9e2:	681b      	ldr	r3, [r3, #0]
     9e4:	f04f 31ff 	mov.w	r1, #4294967295	; 0xffffffff
     9e8:	4618      	mov	r0, r3
     9ea:	4790      	blx	r2
    MAP_UARTIntEnable(g_ulBase, UART_INT_RX | UART_INT_RT);
     9ec:	4b14      	ldr	r3, [pc, #80]	; (a40 <UARTStdioConfig+0xf0>)
     9ee:	681b      	ldr	r3, [r3, #0]
     9f0:	3344      	adds	r3, #68	; 0x44
     9f2:	681b      	ldr	r3, [r3, #0]
     9f4:	461a      	mov	r2, r3
     9f6:	4b11      	ldr	r3, [pc, #68]	; (a3c <UARTStdioConfig+0xec>)
     9f8:	681b      	ldr	r3, [r3, #0]
     9fa:	2150      	movs	r1, #80	; 0x50
     9fc:	4618      	mov	r0, r3
     9fe:	4790      	blx	r2
    MAP_IntEnable(g_ulUARTInt[ulPortNum]);
     a00:	4b11      	ldr	r3, [pc, #68]	; (a48 <UARTStdioConfig+0xf8>)
     a02:	681b      	ldr	r3, [r3, #0]
     a04:	681b      	ldr	r3, [r3, #0]
     a06:	4619      	mov	r1, r3
     a08:	4a10      	ldr	r2, [pc, #64]	; (a4c <UARTStdioConfig+0xfc>)
     a0a:	68fb      	ldr	r3, [r7, #12]
     a0c:	f852 3023 	ldr.w	r3, [r2, r3, lsl #2]
     a10:	4618      	mov	r0, r3
     a12:	4788      	blx	r1
#endif

    //
    // Enable the UART operation.
    //
    MAP_UARTEnable(g_ulBase);
     a14:	4b0a      	ldr	r3, [pc, #40]	; (a40 <UARTStdioConfig+0xf0>)
     a16:	681b      	ldr	r3, [r3, #0]
     a18:	331c      	adds	r3, #28
     a1a:	681b      	ldr	r3, [r3, #0]
     a1c:	461a      	mov	r2, r3
     a1e:	4b07      	ldr	r3, [pc, #28]	; (a3c <UARTStdioConfig+0xec>)
     a20:	681b      	ldr	r3, [r3, #0]
     a22:	4618      	mov	r0, r3
     a24:	4790      	blx	r2
     a26:	e000      	b.n	a2a <UARTStdioConfig+0xda>
        return;
     a28:	bf00      	nop
}
     a2a:	3714      	adds	r7, #20
     a2c:	46bd      	mov	sp, r7
     a2e:	bd90      	pop	{r4, r7, pc}
     a30:	01000044 	.word	0x01000044
     a34:	0000679c 	.word	0x0000679c
     a38:	00006784 	.word	0x00006784
     a3c:	200012c4 	.word	0x200012c4
     a40:	01000014 	.word	0x01000014
     a44:	200012c8 	.word	0x200012c8
     a48:	01000048 	.word	0x01000048
     a4c:	00006790 	.word	0x00006790

00000a50 <UARTStdioInit>:
//! \return None.
//
//*****************************************************************************
void
UARTStdioInit(unsigned long ulPortNum)
{
     a50:	b580      	push	{r7, lr}
     a52:	b082      	sub	sp, #8
     a54:	af00      	add	r7, sp, #0
     a56:	6078      	str	r0, [r7, #4]
    //
    // Pass this call on to the version of the function allowing the baud rate
    // to be specified.
    //
    UARTStdioConfig(ulPortNum, 115200, MAP_SysCtlClockGet());
     a58:	4b07      	ldr	r3, [pc, #28]	; (a78 <UARTStdioInit+0x28>)
     a5a:	681b      	ldr	r3, [r3, #0]
     a5c:	3360      	adds	r3, #96	; 0x60
     a5e:	681b      	ldr	r3, [r3, #0]
     a60:	4798      	blx	r3
     a62:	4603      	mov	r3, r0
     a64:	461a      	mov	r2, r3
     a66:	f44f 31e1 	mov.w	r1, #115200	; 0x1c200
     a6a:	6878      	ldr	r0, [r7, #4]
     a6c:	f7ff ff70 	bl	950 <UARTStdioConfig>
}
     a70:	bf00      	nop
     a72:	3708      	adds	r7, #8
     a74:	46bd      	mov	sp, r7
     a76:	bd80      	pop	{r7, pc}
     a78:	01000044 	.word	0x01000044

00000a7c <UARTwrite>:
//! \return Returns the count of characters written.
//
//*****************************************************************************
int
UARTwrite(const char *pcBuf, unsigned long ulLen)
{
     a7c:	b580      	push	{r7, lr}
     a7e:	b084      	sub	sp, #16
     a80:	af00      	add	r7, sp, #0
     a82:	6078      	str	r0, [r7, #4]
     a84:	6039      	str	r1, [r7, #0]
    ASSERT(g_ulBase != 0);

    //
    // Send the characters
    //
    for(uIdx = 0; uIdx < ulLen; uIdx++)
     a86:	2300      	movs	r3, #0
     a88:	60fb      	str	r3, [r7, #12]
     a8a:	e035      	b.n	af8 <UARTwrite+0x7c>
    {
        //
        // If the character to the UART is \n, then add a \r before it so that
        // \n is translated to \n\r in the output.
        //
        if(pcBuf[uIdx] == '\n')
     a8c:	687a      	ldr	r2, [r7, #4]
     a8e:	68fb      	ldr	r3, [r7, #12]
     a90:	4413      	add	r3, r2
     a92:	781b      	ldrb	r3, [r3, #0]
     a94:	2b0a      	cmp	r3, #10
     a96:	d114      	bne.n	ac2 <UARTwrite+0x46>
        {
            if(!TX_BUFFER_FULL)
     a98:	f44f 6280 	mov.w	r2, #1024	; 0x400
     a9c:	4928      	ldr	r1, [pc, #160]	; (b40 <UARTwrite+0xc4>)
     a9e:	4829      	ldr	r0, [pc, #164]	; (b44 <UARTwrite+0xc8>)
     aa0:	f7ff fec4 	bl	82c <IsBufferFull>
     aa4:	4603      	mov	r3, r0
     aa6:	2b00      	cmp	r3, #0
     aa8:	d12b      	bne.n	b02 <UARTwrite+0x86>
            {
                g_pcUARTTxBuffer[g_ulUARTTxWriteIndex] = '\r';
     aaa:	4b25      	ldr	r3, [pc, #148]	; (b40 <UARTwrite+0xc4>)
     aac:	681b      	ldr	r3, [r3, #0]
     aae:	4a26      	ldr	r2, [pc, #152]	; (b48 <UARTwrite+0xcc>)
     ab0:	210d      	movs	r1, #13
     ab2:	54d1      	strb	r1, [r2, r3]
                ADVANCE_TX_BUFFER_INDEX(g_ulUARTTxWriteIndex);
     ab4:	4b22      	ldr	r3, [pc, #136]	; (b40 <UARTwrite+0xc4>)
     ab6:	681b      	ldr	r3, [r3, #0]
     ab8:	3301      	adds	r3, #1
     aba:	f3c3 0309 	ubfx	r3, r3, #0, #10
     abe:	4a20      	ldr	r2, [pc, #128]	; (b40 <UARTwrite+0xc4>)
     ac0:	6013      	str	r3, [r2, #0]
        }

        //
        // Send the character to the UART output.
        //
        if(!TX_BUFFER_FULL)
     ac2:	f44f 6280 	mov.w	r2, #1024	; 0x400
     ac6:	491e      	ldr	r1, [pc, #120]	; (b40 <UARTwrite+0xc4>)
     ac8:	481e      	ldr	r0, [pc, #120]	; (b44 <UARTwrite+0xc8>)
     aca:	f7ff feaf 	bl	82c <IsBufferFull>
     ace:	4603      	mov	r3, r0
     ad0:	2b00      	cmp	r3, #0
     ad2:	d118      	bne.n	b06 <UARTwrite+0x8a>
        {
            g_pcUARTTxBuffer[g_ulUARTTxWriteIndex] = pcBuf[uIdx];
     ad4:	687a      	ldr	r2, [r7, #4]
     ad6:	68fb      	ldr	r3, [r7, #12]
     ad8:	441a      	add	r2, r3
     ada:	4b19      	ldr	r3, [pc, #100]	; (b40 <UARTwrite+0xc4>)
     adc:	681b      	ldr	r3, [r3, #0]
     ade:	7811      	ldrb	r1, [r2, #0]
     ae0:	4a19      	ldr	r2, [pc, #100]	; (b48 <UARTwrite+0xcc>)
     ae2:	54d1      	strb	r1, [r2, r3]
            ADVANCE_TX_BUFFER_INDEX(g_ulUARTTxWriteIndex);
     ae4:	4b16      	ldr	r3, [pc, #88]	; (b40 <UARTwrite+0xc4>)
     ae6:	681b      	ldr	r3, [r3, #0]
     ae8:	3301      	adds	r3, #1
     aea:	f3c3 0309 	ubfx	r3, r3, #0, #10
     aee:	4a14      	ldr	r2, [pc, #80]	; (b40 <UARTwrite+0xc4>)
     af0:	6013      	str	r3, [r2, #0]
    for(uIdx = 0; uIdx < ulLen; uIdx++)
     af2:	68fb      	ldr	r3, [r7, #12]
     af4:	3301      	adds	r3, #1
     af6:	60fb      	str	r3, [r7, #12]
     af8:	68fa      	ldr	r2, [r7, #12]
     afa:	683b      	ldr	r3, [r7, #0]
     afc:	429a      	cmp	r2, r3
     afe:	d3c5      	bcc.n	a8c <UARTwrite+0x10>
     b00:	e002      	b.n	b08 <UARTwrite+0x8c>
                break;
     b02:	bf00      	nop
     b04:	e000      	b.n	b08 <UARTwrite+0x8c>
        else
        {
            //
            // Buffer is full - discard remaining characters and return.
            //
            break;
     b06:	bf00      	nop

    //
    // If we have anything in the buffer, make sure that the UART is set
    // up to transmit it.
    //
    if(!TX_BUFFER_EMPTY)
     b08:	490d      	ldr	r1, [pc, #52]	; (b40 <UARTwrite+0xc4>)
     b0a:	480e      	ldr	r0, [pc, #56]	; (b44 <UARTwrite+0xc8>)
     b0c:	f7ff feaf 	bl	86e <IsBufferEmpty>
     b10:	4603      	mov	r3, r0
     b12:	2b00      	cmp	r3, #0
     b14:	d10e      	bne.n	b34 <UARTwrite+0xb8>
    {
        UARTPrimeTransmit(g_ulBase);
     b16:	4b0d      	ldr	r3, [pc, #52]	; (b4c <UARTwrite+0xd0>)
     b18:	681b      	ldr	r3, [r3, #0]
     b1a:	4618      	mov	r0, r3
     b1c:	f7ff fec0 	bl	8a0 <UARTPrimeTransmit>
        MAP_UARTIntEnable(g_ulBase, UART_INT_TX);
     b20:	4b0b      	ldr	r3, [pc, #44]	; (b50 <UARTwrite+0xd4>)
     b22:	681b      	ldr	r3, [r3, #0]
     b24:	3344      	adds	r3, #68	; 0x44
     b26:	681b      	ldr	r3, [r3, #0]
     b28:	461a      	mov	r2, r3
     b2a:	4b08      	ldr	r3, [pc, #32]	; (b4c <UARTwrite+0xd0>)
     b2c:	681b      	ldr	r3, [r3, #0]
     b2e:	2120      	movs	r1, #32
     b30:	4618      	mov	r0, r3
     b32:	4790      	blx	r2
    }

    //
    // Return the number of characters written.
    //
    return(uIdx);
     b34:	68fb      	ldr	r3, [r7, #12]
    //
    // Return the number of characters written.
    //
    return(uIdx);
#endif
}
     b36:	4618      	mov	r0, r3
     b38:	3710      	adds	r7, #16
     b3a:	46bd      	mov	sp, r7
     b3c:	bd80      	pop	{r7, pc}
     b3e:	bf00      	nop
     b40:	20001234 	.word	0x20001234
     b44:	20001238 	.word	0x20001238
     b48:	20000e34 	.word	0x20000e34
     b4c:	200012c4 	.word	0x200012c4
     b50:	01000014 	.word	0x01000014

00000b54 <UARTFlushRx>:
//
//*****************************************************************************
#if defined(UART_BUFFERED) || defined(DOXYGEN)
void
UARTFlushRx(void)
{
     b54:	b580      	push	{r7, lr}
     b56:	b082      	sub	sp, #8
     b58:	af00      	add	r7, sp, #0
    unsigned long ulInt;

    //
    // Temporarily turn off interrupts.
    //
    ulInt = MAP_IntMasterDisable();
     b5a:	4b0c      	ldr	r3, [pc, #48]	; (b8c <UARTFlushRx+0x38>)
     b5c:	681b      	ldr	r3, [r3, #0]
     b5e:	3308      	adds	r3, #8
     b60:	681b      	ldr	r3, [r3, #0]
     b62:	4798      	blx	r3
     b64:	4603      	mov	r3, r0
     b66:	607b      	str	r3, [r7, #4]

    //
    // Flush the receive buffer.
    //
    g_ulUARTRxReadIndex = 0;
     b68:	4b09      	ldr	r3, [pc, #36]	; (b90 <UARTFlushRx+0x3c>)
     b6a:	2200      	movs	r2, #0
     b6c:	601a      	str	r2, [r3, #0]
    g_ulUARTRxWriteIndex = 0;
     b6e:	4b09      	ldr	r3, [pc, #36]	; (b94 <UARTFlushRx+0x40>)
     b70:	2200      	movs	r2, #0
     b72:	601a      	str	r2, [r3, #0]

    //
    // If interrupts were enabled when we turned them off, turn them
    // back on again.
    //
    if(!ulInt)
     b74:	687b      	ldr	r3, [r7, #4]
     b76:	2b00      	cmp	r3, #0
     b78:	d104      	bne.n	b84 <UARTFlushRx+0x30>
    {
        MAP_IntMasterEnable();
     b7a:	4b04      	ldr	r3, [pc, #16]	; (b8c <UARTFlushRx+0x38>)
     b7c:	681b      	ldr	r3, [r3, #0]
     b7e:	3304      	adds	r3, #4
     b80:	681b      	ldr	r3, [r3, #0]
     b82:	4798      	blx	r3
    }
}
     b84:	bf00      	nop
     b86:	3708      	adds	r7, #8
     b88:	46bd      	mov	sp, r7
     b8a:	bd80      	pop	{r7, pc}
     b8c:	01000048 	.word	0x01000048
     b90:	200012c0 	.word	0x200012c0
     b94:	200012bc 	.word	0x200012bc

00000b98 <UARTFlushTx>:
//
//*****************************************************************************
#if defined(UART_BUFFERED) || defined(DOXYGEN)
void
UARTFlushTx(tBoolean bDiscard)
{
     b98:	b580      	push	{r7, lr}
     b9a:	b084      	sub	sp, #16
     b9c:	af00      	add	r7, sp, #0
     b9e:	4603      	mov	r3, r0
     ba0:	71fb      	strb	r3, [r7, #7]
    unsigned long ulInt;

    //
    // Should the remaining data be discarded or transmitted?
    //
    if(bDiscard)
     ba2:	79fb      	ldrb	r3, [r7, #7]
     ba4:	2b00      	cmp	r3, #0
     ba6:	d015      	beq.n	bd4 <UARTFlushTx+0x3c>
    {
        //
        // The remaining data should be discarded, so temporarily turn off
        // interrupts.
        //
        ulInt = MAP_IntMasterDisable();
     ba8:	4b10      	ldr	r3, [pc, #64]	; (bec <UARTFlushTx+0x54>)
     baa:	681b      	ldr	r3, [r3, #0]
     bac:	3308      	adds	r3, #8
     bae:	681b      	ldr	r3, [r3, #0]
     bb0:	4798      	blx	r3
     bb2:	4603      	mov	r3, r0
     bb4:	60fb      	str	r3, [r7, #12]

        //
        // Flush the transmit buffer.
        //
        g_ulUARTTxReadIndex = 0;
     bb6:	4b0e      	ldr	r3, [pc, #56]	; (bf0 <UARTFlushTx+0x58>)
     bb8:	2200      	movs	r2, #0
     bba:	601a      	str	r2, [r3, #0]
        g_ulUARTTxWriteIndex = 0;
     bbc:	4b0d      	ldr	r3, [pc, #52]	; (bf4 <UARTFlushTx+0x5c>)
     bbe:	2200      	movs	r2, #0
     bc0:	601a      	str	r2, [r3, #0]

        //
        // If interrupts were enabled when we turned them off, turn them
        // back on again.
        //
        if(!ulInt)
     bc2:	68fb      	ldr	r3, [r7, #12]
     bc4:	2b00      	cmp	r3, #0
     bc6:	d10d      	bne.n	be4 <UARTFlushTx+0x4c>
        {
            MAP_IntMasterEnable();
     bc8:	4b08      	ldr	r3, [pc, #32]	; (bec <UARTFlushTx+0x54>)
     bca:	681b      	ldr	r3, [r3, #0]
     bcc:	3304      	adds	r3, #4
     bce:	681b      	ldr	r3, [r3, #0]
     bd0:	4798      	blx	r3
        //
        while(!TX_BUFFER_EMPTY)
        {
        }
    }
}
     bd2:	e007      	b.n	be4 <UARTFlushTx+0x4c>
        while(!TX_BUFFER_EMPTY)
     bd4:	bf00      	nop
     bd6:	4907      	ldr	r1, [pc, #28]	; (bf4 <UARTFlushTx+0x5c>)
     bd8:	4805      	ldr	r0, [pc, #20]	; (bf0 <UARTFlushTx+0x58>)
     bda:	f7ff fe48 	bl	86e <IsBufferEmpty>
     bde:	4603      	mov	r3, r0
     be0:	2b00      	cmp	r3, #0
     be2:	d0f8      	beq.n	bd6 <UARTFlushTx+0x3e>
}
     be4:	bf00      	nop
     be6:	3710      	adds	r7, #16
     be8:	46bd      	mov	sp, r7
     bea:	bd80      	pop	{r7, pc}
     bec:	01000048 	.word	0x01000048
     bf0:	20001238 	.word	0x20001238
     bf4:	20001234 	.word	0x20001234

00000bf8 <UARTStdioIntHandler>:
//
//*****************************************************************************
#if defined(UART_BUFFERED) || defined(DOXYGEN)
void
UARTStdioIntHandler(void)
{
     bf8:	b580      	push	{r7, lr}
     bfa:	b084      	sub	sp, #16
     bfc:	af00      	add	r7, sp, #0
    static tBoolean bLastWasCR = false;

    //
    // Get and clear the current interrupt source(s)
    //
    ulInts = MAP_UARTIntStatus(g_ulBase, true);
     bfe:	4b60      	ldr	r3, [pc, #384]	; (d80 <UARTStdioIntHandler+0x188>)
     c00:	681b      	ldr	r3, [r3, #0]
     c02:	334c      	adds	r3, #76	; 0x4c
     c04:	681b      	ldr	r3, [r3, #0]
     c06:	461a      	mov	r2, r3
     c08:	4b5e      	ldr	r3, [pc, #376]	; (d84 <UARTStdioIntHandler+0x18c>)
     c0a:	681b      	ldr	r3, [r3, #0]
     c0c:	2101      	movs	r1, #1
     c0e:	4618      	mov	r0, r3
     c10:	4790      	blx	r2
     c12:	60f8      	str	r0, [r7, #12]
    MAP_UARTIntClear(g_ulBase, ulInts);
     c14:	4b5a      	ldr	r3, [pc, #360]	; (d80 <UARTStdioIntHandler+0x188>)
     c16:	681b      	ldr	r3, [r3, #0]
     c18:	3350      	adds	r3, #80	; 0x50
     c1a:	681b      	ldr	r3, [r3, #0]
     c1c:	461a      	mov	r2, r3
     c1e:	4b59      	ldr	r3, [pc, #356]	; (d84 <UARTStdioIntHandler+0x18c>)
     c20:	681b      	ldr	r3, [r3, #0]
     c22:	68f9      	ldr	r1, [r7, #12]
     c24:	4618      	mov	r0, r3
     c26:	4790      	blx	r2

    //
    // Are we being interrupted because the TX FIFO has space available?
    //
    if(ulInts & UART_INT_TX)
     c28:	68fb      	ldr	r3, [r7, #12]
     c2a:	f003 0320 	and.w	r3, r3, #32
     c2e:	2b00      	cmp	r3, #0
     c30:	d015      	beq.n	c5e <UARTStdioIntHandler+0x66>
    {
        //
        // Move as many bytes as we can into the transmit FIFO.
        //
        UARTPrimeTransmit(g_ulBase);
     c32:	4b54      	ldr	r3, [pc, #336]	; (d84 <UARTStdioIntHandler+0x18c>)
     c34:	681b      	ldr	r3, [r3, #0]
     c36:	4618      	mov	r0, r3
     c38:	f7ff fe32 	bl	8a0 <UARTPrimeTransmit>

        //
        // If the output buffer is empty, turn off the transmit interrupt.
        //
        if(TX_BUFFER_EMPTY)
     c3c:	4952      	ldr	r1, [pc, #328]	; (d88 <UARTStdioIntHandler+0x190>)
     c3e:	4853      	ldr	r0, [pc, #332]	; (d8c <UARTStdioIntHandler+0x194>)
     c40:	f7ff fe15 	bl	86e <IsBufferEmpty>
     c44:	4603      	mov	r3, r0
     c46:	2b00      	cmp	r3, #0
     c48:	d009      	beq.n	c5e <UARTStdioIntHandler+0x66>
        {
            MAP_UARTIntDisable(g_ulBase, UART_INT_TX);
     c4a:	4b4d      	ldr	r3, [pc, #308]	; (d80 <UARTStdioIntHandler+0x188>)
     c4c:	681b      	ldr	r3, [r3, #0]
     c4e:	3348      	adds	r3, #72	; 0x48
     c50:	681b      	ldr	r3, [r3, #0]
     c52:	461a      	mov	r2, r3
     c54:	4b4b      	ldr	r3, [pc, #300]	; (d84 <UARTStdioIntHandler+0x18c>)
     c56:	681b      	ldr	r3, [r3, #0]
     c58:	2120      	movs	r1, #32
     c5a:	4618      	mov	r0, r3
     c5c:	4790      	blx	r2
    }

    //
    // Are we being interrupted due to a received character?
    //
    if(ulInts & (UART_INT_RX | UART_INT_RT))
     c5e:	68fb      	ldr	r3, [r7, #12]
     c60:	f003 0350 	and.w	r3, r3, #80	; 0x50
     c64:	2b00      	cmp	r3, #0
     c66:	f000 8087 	beq.w	d78 <UARTStdioIntHandler+0x180>
    {
        //
        // Get all the available characters from the UART.
        //
        while(MAP_UARTCharsAvail(g_ulBase))
     c6a:	e06a      	b.n	d42 <UARTStdioIntHandler+0x14a>
        {
            //
            // Read a character
            //
            lChar = MAP_UARTCharGetNonBlocking(g_ulBase);
     c6c:	4b44      	ldr	r3, [pc, #272]	; (d80 <UARTStdioIntHandler+0x188>)
     c6e:	681b      	ldr	r3, [r3, #0]
     c70:	3334      	adds	r3, #52	; 0x34
     c72:	681b      	ldr	r3, [r3, #0]
     c74:	461a      	mov	r2, r3
     c76:	4b43      	ldr	r3, [pc, #268]	; (d84 <UARTStdioIntHandler+0x18c>)
     c78:	681b      	ldr	r3, [r3, #0]
     c7a:	4618      	mov	r0, r3
     c7c:	4790      	blx	r2
     c7e:	60b8      	str	r0, [r7, #8]
            cChar = (unsigned char)(lChar & 0xFF);
     c80:	68bb      	ldr	r3, [r7, #8]
     c82:	b2db      	uxtb	r3, r3
     c84:	71fb      	strb	r3, [r7, #7]
            //
            // If echo is disabled, we skip the various text filtering
            // operations that would typically be required when supporting a
            // command line.
            //
            if(!g_bDisableEcho)
     c86:	4b42      	ldr	r3, [pc, #264]	; (d90 <UARTStdioIntHandler+0x198>)
     c88:	781b      	ldrb	r3, [r3, #0]
     c8a:	2b00      	cmp	r3, #0
     c8c:	d13b      	bne.n	d06 <UARTStdioIntHandler+0x10e>
            {
                //
                // Handle backspace by erasing the last character in the buffer.
                //
                if(cChar == '\b')
     c8e:	79fb      	ldrb	r3, [r7, #7]
     c90:	2b08      	cmp	r3, #8
     c92:	d118      	bne.n	cc6 <UARTStdioIntHandler+0xce>
                {
                    //
                    // If there are any characters already in the buffer, then
                    // delete the last.
                    //
                    if(!RX_BUFFER_EMPTY)
     c94:	493f      	ldr	r1, [pc, #252]	; (d94 <UARTStdioIntHandler+0x19c>)
     c96:	4840      	ldr	r0, [pc, #256]	; (d98 <UARTStdioIntHandler+0x1a0>)
     c98:	f7ff fde9 	bl	86e <IsBufferEmpty>
     c9c:	4603      	mov	r3, r0
     c9e:	2b00      	cmp	r3, #0
     ca0:	d14f      	bne.n	d42 <UARTStdioIntHandler+0x14a>
                    {
                        //
                        // Rub out the previous character on the users terminal.
                        //
                        UARTwrite("\b \b", 3);
     ca2:	2103      	movs	r1, #3
     ca4:	483d      	ldr	r0, [pc, #244]	; (d9c <UARTStdioIntHandler+0x1a4>)
     ca6:	f7ff fee9 	bl	a7c <UARTwrite>

                        //
                        // Decrement the number of characters in the buffer.
                        //
                        if(g_ulUARTRxWriteIndex == 0)
     caa:	4b3a      	ldr	r3, [pc, #232]	; (d94 <UARTStdioIntHandler+0x19c>)
     cac:	681b      	ldr	r3, [r3, #0]
     cae:	2b00      	cmp	r3, #0
     cb0:	d103      	bne.n	cba <UARTStdioIntHandler+0xc2>
                        {
                            g_ulUARTRxWriteIndex = UART_RX_BUFFER_SIZE - 1;
     cb2:	4b38      	ldr	r3, [pc, #224]	; (d94 <UARTStdioIntHandler+0x19c>)
     cb4:	227f      	movs	r2, #127	; 0x7f
     cb6:	601a      	str	r2, [r3, #0]
     cb8:	e043      	b.n	d42 <UARTStdioIntHandler+0x14a>
                        }
                        else
                        {
                            g_ulUARTRxWriteIndex--;
     cba:	4b36      	ldr	r3, [pc, #216]	; (d94 <UARTStdioIntHandler+0x19c>)
     cbc:	681b      	ldr	r3, [r3, #0]
     cbe:	3b01      	subs	r3, #1
     cc0:	4a34      	ldr	r2, [pc, #208]	; (d94 <UARTStdioIntHandler+0x19c>)
     cc2:	6013      	str	r3, [r2, #0]
                    }

                    //
                    // Skip ahead to read the next character.
                    //
                    continue;
     cc4:	e03d      	b.n	d42 <UARTStdioIntHandler+0x14a>
                // If this character is LF and last was CR, then just gobble up
                // the character since we already echoed the previous CR and we
                // don't want to store 2 characters in the buffer if we don't
                // need to.
                //
                if((cChar == '\n') && bLastWasCR)
     cc6:	79fb      	ldrb	r3, [r7, #7]
     cc8:	2b0a      	cmp	r3, #10
     cca:	d107      	bne.n	cdc <UARTStdioIntHandler+0xe4>
     ccc:	4b34      	ldr	r3, [pc, #208]	; (da0 <UARTStdioIntHandler+0x1a8>)
     cce:	781b      	ldrb	r3, [r3, #0]
     cd0:	2b00      	cmp	r3, #0
     cd2:	d003      	beq.n	cdc <UARTStdioIntHandler+0xe4>
                {
                    bLastWasCR = false;
     cd4:	4b32      	ldr	r3, [pc, #200]	; (da0 <UARTStdioIntHandler+0x1a8>)
     cd6:	2200      	movs	r2, #0
     cd8:	701a      	strb	r2, [r3, #0]
                    continue;
     cda:	e032      	b.n	d42 <UARTStdioIntHandler+0x14a>
                }

                //
                // See if a newline or escape character was received.
                //
                if((cChar == '\r') || (cChar == '\n') || (cChar == 0x1b))
     cdc:	79fb      	ldrb	r3, [r7, #7]
     cde:	2b0d      	cmp	r3, #13
     ce0:	d005      	beq.n	cee <UARTStdioIntHandler+0xf6>
     ce2:	79fb      	ldrb	r3, [r7, #7]
     ce4:	2b0a      	cmp	r3, #10
     ce6:	d002      	beq.n	cee <UARTStdioIntHandler+0xf6>
     ce8:	79fb      	ldrb	r3, [r7, #7]
     cea:	2b1b      	cmp	r3, #27
     cec:	d10b      	bne.n	d06 <UARTStdioIntHandler+0x10e>
                    //
                    // If the character is a CR, then it may be followed by an
                    // LF which should be paired with the CR.  So remember that
                    // a CR was received.
                    //
                    if(cChar == '\r')
     cee:	79fb      	ldrb	r3, [r7, #7]
     cf0:	2b0d      	cmp	r3, #13
     cf2:	d102      	bne.n	cfa <UARTStdioIntHandler+0x102>
                    {
                        bLastWasCR = 1;
     cf4:	4b2a      	ldr	r3, [pc, #168]	; (da0 <UARTStdioIntHandler+0x1a8>)
     cf6:	2201      	movs	r2, #1
     cf8:	701a      	strb	r2, [r3, #0]
                    // put a CR in the receive buffer as a marker telling
                    // UARTgets() where the line ends.  We also send an
                    // additional LF to ensure that the local terminal echo
                    // receives both CR and LF.
                    //
                    cChar = '\r';
     cfa:	230d      	movs	r3, #13
     cfc:	71fb      	strb	r3, [r7, #7]
                    UARTwrite("\n", 1);
     cfe:	2101      	movs	r1, #1
     d00:	4828      	ldr	r0, [pc, #160]	; (da4 <UARTStdioIntHandler+0x1ac>)
     d02:	f7ff febb 	bl	a7c <UARTwrite>

            //
            // If there is space in the receive buffer, put the character
            // there, otherwise throw it away.
            //
            if(!RX_BUFFER_FULL)
     d06:	2280      	movs	r2, #128	; 0x80
     d08:	4922      	ldr	r1, [pc, #136]	; (d94 <UARTStdioIntHandler+0x19c>)
     d0a:	4823      	ldr	r0, [pc, #140]	; (d98 <UARTStdioIntHandler+0x1a0>)
     d0c:	f7ff fd8e 	bl	82c <IsBufferFull>
     d10:	4603      	mov	r3, r0
     d12:	2b00      	cmp	r3, #0
     d14:	d115      	bne.n	d42 <UARTStdioIntHandler+0x14a>
            {
                //
                // Store the new character in the receive buffer
                //
                g_pcUARTRxBuffer[g_ulUARTRxWriteIndex] =
     d16:	4b1f      	ldr	r3, [pc, #124]	; (d94 <UARTStdioIntHandler+0x19c>)
     d18:	681b      	ldr	r3, [r3, #0]
                    (unsigned char)(lChar & 0xFF);
     d1a:	68ba      	ldr	r2, [r7, #8]
     d1c:	b2d1      	uxtb	r1, r2
                g_pcUARTRxBuffer[g_ulUARTRxWriteIndex] =
     d1e:	4a22      	ldr	r2, [pc, #136]	; (da8 <UARTStdioIntHandler+0x1b0>)
     d20:	54d1      	strb	r1, [r2, r3]
                ADVANCE_RX_BUFFER_INDEX(g_ulUARTRxWriteIndex);
     d22:	4b1c      	ldr	r3, [pc, #112]	; (d94 <UARTStdioIntHandler+0x19c>)
     d24:	681b      	ldr	r3, [r3, #0]
     d26:	3301      	adds	r3, #1
     d28:	f003 037f 	and.w	r3, r3, #127	; 0x7f
     d2c:	4a19      	ldr	r2, [pc, #100]	; (d94 <UARTStdioIntHandler+0x19c>)
     d2e:	6013      	str	r3, [r2, #0]

                //
                // If echo is enabled, write the character to the transmit
                // buffer so that the user gets some immediate feedback.
                //
                if(!g_bDisableEcho)
     d30:	4b17      	ldr	r3, [pc, #92]	; (d90 <UARTStdioIntHandler+0x198>)
     d32:	781b      	ldrb	r3, [r3, #0]
     d34:	2b00      	cmp	r3, #0
     d36:	d104      	bne.n	d42 <UARTStdioIntHandler+0x14a>
                {
                    UARTwrite(&cChar, 1);
     d38:	1dfb      	adds	r3, r7, #7
     d3a:	2101      	movs	r1, #1
     d3c:	4618      	mov	r0, r3
     d3e:	f7ff fe9d 	bl	a7c <UARTwrite>
        while(MAP_UARTCharsAvail(g_ulBase))
     d42:	4b0f      	ldr	r3, [pc, #60]	; (d80 <UARTStdioIntHandler+0x188>)
     d44:	681b      	ldr	r3, [r3, #0]
     d46:	332c      	adds	r3, #44	; 0x2c
     d48:	681b      	ldr	r3, [r3, #0]
     d4a:	461a      	mov	r2, r3
     d4c:	4b0d      	ldr	r3, [pc, #52]	; (d84 <UARTStdioIntHandler+0x18c>)
     d4e:	681b      	ldr	r3, [r3, #0]
     d50:	4618      	mov	r0, r3
     d52:	4790      	blx	r2
     d54:	4603      	mov	r3, r0
     d56:	2b00      	cmp	r3, #0
     d58:	d188      	bne.n	c6c <UARTStdioIntHandler+0x74>

        //
        // If we wrote anything to the transmit buffer, make sure it actually
        // gets transmitted.
        //
        UARTPrimeTransmit(g_ulBase);
     d5a:	4b0a      	ldr	r3, [pc, #40]	; (d84 <UARTStdioIntHandler+0x18c>)
     d5c:	681b      	ldr	r3, [r3, #0]
     d5e:	4618      	mov	r0, r3
     d60:	f7ff fd9e 	bl	8a0 <UARTPrimeTransmit>
        MAP_UARTIntEnable(g_ulBase, UART_INT_TX);
     d64:	4b06      	ldr	r3, [pc, #24]	; (d80 <UARTStdioIntHandler+0x188>)
     d66:	681b      	ldr	r3, [r3, #0]
     d68:	3344      	adds	r3, #68	; 0x44
     d6a:	681b      	ldr	r3, [r3, #0]
     d6c:	461a      	mov	r2, r3
     d6e:	4b05      	ldr	r3, [pc, #20]	; (d84 <UARTStdioIntHandler+0x18c>)
     d70:	681b      	ldr	r3, [r3, #0]
     d72:	2120      	movs	r1, #32
     d74:	4618      	mov	r0, r3
     d76:	4790      	blx	r2
    }
}
     d78:	bf00      	nop
     d7a:	3710      	adds	r7, #16
     d7c:	46bd      	mov	sp, r7
     d7e:	bd80      	pop	{r7, pc}
     d80:	01000014 	.word	0x01000014
     d84:	200012c4 	.word	0x200012c4
     d88:	20001234 	.word	0x20001234
     d8c:	20001238 	.word	0x20001238
     d90:	20000e31 	.word	0x20000e31
     d94:	200012bc 	.word	0x200012bc
     d98:	200012c0 	.word	0x200012c0
     d9c:	0000677c 	.word	0x0000677c
     da0:	200012cc 	.word	0x200012cc
     da4:	00006780 	.word	0x00006780
     da8:	2000123c 	.word	0x2000123c

00000dac <iprintf>:
     dac:	b40f      	push	{r0, r1, r2, r3}
     dae:	b500      	push	{lr}
     db0:	4907      	ldr	r1, [pc, #28]	; (dd0 <iprintf+0x24>)
     db2:	b083      	sub	sp, #12
     db4:	ab04      	add	r3, sp, #16
     db6:	6808      	ldr	r0, [r1, #0]
     db8:	f853 2b04 	ldr.w	r2, [r3], #4
     dbc:	6881      	ldr	r1, [r0, #8]
     dbe:	9301      	str	r3, [sp, #4]
     dc0:	f000 f844 	bl	e4c <_vfiprintf_r>
     dc4:	b003      	add	sp, #12
     dc6:	f85d eb04 	ldr.w	lr, [sp], #4
     dca:	b004      	add	sp, #16
     dcc:	4770      	bx	lr
     dce:	bf00      	nop
     dd0:	20000000 	.word	0x20000000

00000dd4 <__sprint_r.part.0>:
     dd4:	e92d 4ff8 	stmdb	sp!, {r3, r4, r5, r6, r7, r8, r9, sl, fp, lr}
     dd8:	6e4b      	ldr	r3, [r1, #100]	; 0x64
     dda:	049c      	lsls	r4, r3, #18
     ddc:	4692      	mov	sl, r2
     dde:	d52d      	bpl.n	e3c <__sprint_r.part.0+0x68>
     de0:	6893      	ldr	r3, [r2, #8]
     de2:	6812      	ldr	r2, [r2, #0]
     de4:	b343      	cbz	r3, e38 <__sprint_r.part.0+0x64>
     de6:	460e      	mov	r6, r1
     de8:	4607      	mov	r7, r0
     dea:	f102 0908 	add.w	r9, r2, #8
     dee:	e959 5b02 	ldrd	r5, fp, [r9, #-8]
     df2:	ea5f 089b 	movs.w	r8, fp, lsr #2
     df6:	d015      	beq.n	e24 <__sprint_r.part.0+0x50>
     df8:	3d04      	subs	r5, #4
     dfa:	2400      	movs	r4, #0
     dfc:	e001      	b.n	e02 <__sprint_r.part.0+0x2e>
     dfe:	45a0      	cmp	r8, r4
     e00:	d00e      	beq.n	e20 <__sprint_r.part.0+0x4c>
     e02:	4632      	mov	r2, r6
     e04:	f855 1f04 	ldr.w	r1, [r5, #4]!
     e08:	4638      	mov	r0, r7
     e0a:	f001 f867 	bl	1edc <_fputwc_r>
     e0e:	1c43      	adds	r3, r0, #1
     e10:	f104 0401 	add.w	r4, r4, #1
     e14:	d1f3      	bne.n	dfe <__sprint_r.part.0+0x2a>
     e16:	2300      	movs	r3, #0
     e18:	e9ca 3301 	strd	r3, r3, [sl, #4]
     e1c:	e8bd 8ff8 	ldmia.w	sp!, {r3, r4, r5, r6, r7, r8, r9, sl, fp, pc}
     e20:	f8da 3008 	ldr.w	r3, [sl, #8]
     e24:	f02b 0b03 	bic.w	fp, fp, #3
     e28:	eba3 030b 	sub.w	r3, r3, fp
     e2c:	f8ca 3008 	str.w	r3, [sl, #8]
     e30:	f109 0908 	add.w	r9, r9, #8
     e34:	2b00      	cmp	r3, #0
     e36:	d1da      	bne.n	dee <__sprint_r.part.0+0x1a>
     e38:	2000      	movs	r0, #0
     e3a:	e7ec      	b.n	e16 <__sprint_r.part.0+0x42>
     e3c:	f001 f9c4 	bl	21c8 <__sfvwrite_r>
     e40:	2300      	movs	r3, #0
     e42:	e9ca 3301 	strd	r3, r3, [sl, #4]
     e46:	e8bd 8ff8 	ldmia.w	sp!, {r3, r4, r5, r6, r7, r8, r9, sl, fp, pc}
     e4a:	bf00      	nop

00000e4c <_vfiprintf_r>:
     e4c:	e92d 4ff0 	stmdb	sp!, {r4, r5, r6, r7, r8, r9, sl, fp, lr}
     e50:	b0ad      	sub	sp, #180	; 0xb4
     e52:	461c      	mov	r4, r3
     e54:	9102      	str	r1, [sp, #8]
     e56:	4691      	mov	r9, r2
     e58:	e9cd 0307 	strd	r0, r3, [sp, #28]
     e5c:	b118      	cbz	r0, e66 <_vfiprintf_r+0x1a>
     e5e:	6b83      	ldr	r3, [r0, #56]	; 0x38
     e60:	2b00      	cmp	r3, #0
     e62:	f000 83a3 	beq.w	15ac <_vfiprintf_r+0x760>
     e66:	9b02      	ldr	r3, [sp, #8]
     e68:	f9b3 100c 	ldrsh.w	r1, [r3, #12]
     e6c:	6e5b      	ldr	r3, [r3, #100]	; 0x64
     e6e:	07d8      	lsls	r0, r3, #31
     e70:	b28a      	uxth	r2, r1
     e72:	d402      	bmi.n	e7a <_vfiprintf_r+0x2e>
     e74:	0593      	lsls	r3, r2, #22
     e76:	f140 8521 	bpl.w	18bc <_vfiprintf_r+0xa70>
     e7a:	0497      	lsls	r7, r2, #18
     e7c:	d408      	bmi.n	e90 <_vfiprintf_r+0x44>
     e7e:	9802      	ldr	r0, [sp, #8]
     e80:	6e43      	ldr	r3, [r0, #100]	; 0x64
     e82:	f441 5200 	orr.w	r2, r1, #8192	; 0x2000
     e86:	f423 5300 	bic.w	r3, r3, #8192	; 0x2000
     e8a:	8182      	strh	r2, [r0, #12]
     e8c:	6643      	str	r3, [r0, #100]	; 0x64
     e8e:	b292      	uxth	r2, r2
     e90:	0716      	lsls	r6, r2, #28
     e92:	f140 8100 	bpl.w	1096 <_vfiprintf_r+0x24a>
     e96:	9b02      	ldr	r3, [sp, #8]
     e98:	691b      	ldr	r3, [r3, #16]
     e9a:	2b00      	cmp	r3, #0
     e9c:	f000 80fb 	beq.w	1096 <_vfiprintf_r+0x24a>
     ea0:	f002 031a 	and.w	r3, r2, #26
     ea4:	2b0a      	cmp	r3, #10
     ea6:	f000 8368 	beq.w	157a <_vfiprintf_r+0x72e>
     eaa:	2300      	movs	r3, #0
     eac:	e9cd 3310 	strd	r3, r3, [sp, #64]	; 0x40
     eb0:	f10d 0a70 	add.w	sl, sp, #112	; 0x70
     eb4:	930a      	str	r3, [sp, #40]	; 0x28
     eb6:	9304      	str	r3, [sp, #16]
     eb8:	f8cd a03c 	str.w	sl, [sp, #60]	; 0x3c
     ebc:	46d3      	mov	fp, sl
     ebe:	f899 3000 	ldrb.w	r3, [r9]
     ec2:	2b00      	cmp	r3, #0
     ec4:	f000 841e 	beq.w	1704 <_vfiprintf_r+0x8b8>
     ec8:	2b25      	cmp	r3, #37	; 0x25
     eca:	464c      	mov	r4, r9
     ecc:	d102      	bne.n	ed4 <_vfiprintf_r+0x88>
     ece:	e01e      	b.n	f0e <_vfiprintf_r+0xc2>
     ed0:	2b25      	cmp	r3, #37	; 0x25
     ed2:	d003      	beq.n	edc <_vfiprintf_r+0x90>
     ed4:	f814 3f01 	ldrb.w	r3, [r4, #1]!
     ed8:	2b00      	cmp	r3, #0
     eda:	d1f9      	bne.n	ed0 <_vfiprintf_r+0x84>
     edc:	eba4 0509 	sub.w	r5, r4, r9
     ee0:	b18d      	cbz	r5, f06 <_vfiprintf_r+0xba>
     ee2:	e9dd 3210 	ldrd	r3, r2, [sp, #64]	; 0x40
     ee6:	3301      	adds	r3, #1
     ee8:	442a      	add	r2, r5
     eea:	2b07      	cmp	r3, #7
     eec:	f8cb 9000 	str.w	r9, [fp]
     ef0:	f8cb 5004 	str.w	r5, [fp, #4]
     ef4:	e9cd 3210 	strd	r3, r2, [sp, #64]	; 0x40
     ef8:	f300 80e4 	bgt.w	10c4 <_vfiprintf_r+0x278>
     efc:	f10b 0b08 	add.w	fp, fp, #8
     f00:	9b04      	ldr	r3, [sp, #16]
     f02:	442b      	add	r3, r5
     f04:	9304      	str	r3, [sp, #16]
     f06:	7823      	ldrb	r3, [r4, #0]
     f08:	2b00      	cmp	r3, #0
     f0a:	f000 83fb 	beq.w	1704 <_vfiprintf_r+0x8b8>
     f0e:	2100      	movs	r1, #0
     f10:	f04f 0300 	mov.w	r3, #0
     f14:	7862      	ldrb	r2, [r4, #1]
     f16:	f88d 3037 	strb.w	r3, [sp, #55]	; 0x37
     f1a:	4608      	mov	r0, r1
     f1c:	9106      	str	r1, [sp, #24]
     f1e:	460f      	mov	r7, r1
     f20:	f104 0901 	add.w	r9, r4, #1
     f24:	f04f 38ff 	mov.w	r8, #4294967295	; 0xffffffff
     f28:	f109 0901 	add.w	r9, r9, #1
     f2c:	f1a2 0320 	sub.w	r3, r2, #32
     f30:	2b58      	cmp	r3, #88	; 0x58
     f32:	f200 8340 	bhi.w	15b6 <_vfiprintf_r+0x76a>
     f36:	e8df f013 	tbh	[pc, r3, lsl #1]
     f3a:	02da      	.short	0x02da
     f3c:	033e033e 	.word	0x033e033e
     f40:	033e02d5 	.word	0x033e02d5
     f44:	033e033e 	.word	0x033e033e
     f48:	033e033e 	.word	0x033e033e
     f4c:	02c9033e 	.word	0x02c9033e
     f50:	033e02e7 	.word	0x033e02e7
     f54:	02ec02e2 	.word	0x02ec02e2
     f58:	00da033e 	.word	0x00da033e
     f5c:	00cb00cb 	.word	0x00cb00cb
     f60:	00cb00cb 	.word	0x00cb00cb
     f64:	00cb00cb 	.word	0x00cb00cb
     f68:	00cb00cb 	.word	0x00cb00cb
     f6c:	033e00cb 	.word	0x033e00cb
     f70:	033e033e 	.word	0x033e033e
     f74:	033e033e 	.word	0x033e033e
     f78:	033e033e 	.word	0x033e033e
     f7c:	033e033e 	.word	0x033e033e
     f80:	02b4033e 	.word	0x02b4033e
     f84:	033e033e 	.word	0x033e033e
     f88:	033e033e 	.word	0x033e033e
     f8c:	033e033e 	.word	0x033e033e
     f90:	033e033e 	.word	0x033e033e
     f94:	033e033e 	.word	0x033e033e
     f98:	033e009d 	.word	0x033e009d
     f9c:	033e033e 	.word	0x033e033e
     fa0:	033e033e 	.word	0x033e033e
     fa4:	033e0059 	.word	0x033e0059
     fa8:	029f033e 	.word	0x029f033e
     fac:	033e033e 	.word	0x033e033e
     fb0:	033e033e 	.word	0x033e033e
     fb4:	033e033e 	.word	0x033e033e
     fb8:	033e033e 	.word	0x033e033e
     fbc:	033e033e 	.word	0x033e033e
     fc0:	017b0198 	.word	0x017b0198
     fc4:	033e033e 	.word	0x033e033e
     fc8:	0176033e 	.word	0x0176033e
     fcc:	033e017b 	.word	0x033e017b
     fd0:	0169033e 	.word	0x0169033e
     fd4:	0155033e 	.word	0x0155033e
     fd8:	0125009f 	.word	0x0125009f
     fdc:	033e0120 	.word	0x033e0120
     fe0:	033e0100 	.word	0x033e0100
     fe4:	033e005b 	.word	0x033e005b
     fe8:	00df033e 	.word	0x00df033e
     fec:	f047 0710 	orr.w	r7, r7, #16
     ff0:	06bb      	lsls	r3, r7, #26
     ff2:	f140 82a8 	bpl.w	1546 <_vfiprintf_r+0x6fa>
     ff6:	9c08      	ldr	r4, [sp, #32]
     ff8:	3407      	adds	r4, #7
     ffa:	f024 0307 	bic.w	r3, r4, #7
     ffe:	f103 0208 	add.w	r2, r3, #8
    1002:	9208      	str	r2, [sp, #32]
    1004:	f1b8 3fff 	cmp.w	r8, #4294967295	; 0xffffffff
    1008:	f04f 0200 	mov.w	r2, #0
    100c:	e9d3 4500 	ldrd	r4, r5, [r3]
    1010:	f88d 2037 	strb.w	r2, [sp, #55]	; 0x37
    1014:	f04f 0301 	mov.w	r3, #1
    1018:	f040 80ca 	bne.w	11b0 <_vfiprintf_r+0x364>
    101c:	2200      	movs	r2, #0
    101e:	9703      	str	r7, [sp, #12]
    1020:	9209      	str	r2, [sp, #36]	; 0x24
    1022:	2b01      	cmp	r3, #1
    1024:	f000 83f9 	beq.w	181a <_vfiprintf_r+0x9ce>
    1028:	2b02      	cmp	r3, #2
    102a:	f000 8385 	beq.w	1738 <_vfiprintf_r+0x8ec>
    102e:	4651      	mov	r1, sl
    1030:	e000      	b.n	1034 <_vfiprintf_r+0x1e8>
    1032:	4631      	mov	r1, r6
    1034:	08e2      	lsrs	r2, r4, #3
    1036:	ea42 7245 	orr.w	r2, r2, r5, lsl #29
    103a:	08e8      	lsrs	r0, r5, #3
    103c:	f004 0307 	and.w	r3, r4, #7
    1040:	4605      	mov	r5, r0
    1042:	4614      	mov	r4, r2
    1044:	3330      	adds	r3, #48	; 0x30
    1046:	ea54 0205 	orrs.w	r2, r4, r5
    104a:	f801 3c01 	strb.w	r3, [r1, #-1]
    104e:	f101 36ff 	add.w	r6, r1, #4294967295	; 0xffffffff
    1052:	d1ee      	bne.n	1032 <_vfiprintf_r+0x1e6>
    1054:	9a03      	ldr	r2, [sp, #12]
    1056:	07d7      	lsls	r7, r2, #31
    1058:	f140 837e 	bpl.w	1758 <_vfiprintf_r+0x90c>
    105c:	2b30      	cmp	r3, #48	; 0x30
    105e:	f000 837b 	beq.w	1758 <_vfiprintf_r+0x90c>
    1062:	3902      	subs	r1, #2
    1064:	2330      	movs	r3, #48	; 0x30
    1066:	f806 3c01 	strb.w	r3, [r6, #-1]
    106a:	ebaa 0301 	sub.w	r3, sl, r1
    106e:	9305      	str	r3, [sp, #20]
    1070:	460e      	mov	r6, r1
    1072:	e374      	b.n	175e <_vfiprintf_r+0x912>
    1074:	f047 0710 	orr.w	r7, r7, #16
    1078:	f017 0320 	ands.w	r3, r7, #32
    107c:	f000 826d 	beq.w	155a <_vfiprintf_r+0x70e>
    1080:	9c08      	ldr	r4, [sp, #32]
    1082:	3407      	adds	r4, #7
    1084:	f024 0307 	bic.w	r3, r4, #7
    1088:	f103 0208 	add.w	r2, r3, #8
    108c:	e9d3 4500 	ldrd	r4, r5, [r3]
    1090:	9208      	str	r2, [sp, #32]
    1092:	2300      	movs	r3, #0
    1094:	e084      	b.n	11a0 <_vfiprintf_r+0x354>
    1096:	9d02      	ldr	r5, [sp, #8]
    1098:	9807      	ldr	r0, [sp, #28]
    109a:	4629      	mov	r1, r5
    109c:	f000 fd2a 	bl	1af4 <__swsetup_r>
    10a0:	2800      	cmp	r0, #0
    10a2:	f000 8264 	beq.w	156e <_vfiprintf_r+0x722>
    10a6:	9a02      	ldr	r2, [sp, #8]
    10a8:	6e53      	ldr	r3, [r2, #100]	; 0x64
    10aa:	07dd      	lsls	r5, r3, #31
    10ac:	d403      	bmi.n	10b6 <_vfiprintf_r+0x26a>
    10ae:	8993      	ldrh	r3, [r2, #12]
    10b0:	059c      	lsls	r4, r3, #22
    10b2:	f140 843e 	bpl.w	1932 <_vfiprintf_r+0xae6>
    10b6:	f04f 33ff 	mov.w	r3, #4294967295	; 0xffffffff
    10ba:	9304      	str	r3, [sp, #16]
    10bc:	9804      	ldr	r0, [sp, #16]
    10be:	b02d      	add	sp, #180	; 0xb4
    10c0:	e8bd 8ff0 	ldmia.w	sp!, {r4, r5, r6, r7, r8, r9, sl, fp, pc}
    10c4:	2a00      	cmp	r2, #0
    10c6:	f040 83b8 	bne.w	183a <_vfiprintf_r+0x9ee>
    10ca:	9210      	str	r2, [sp, #64]	; 0x40
    10cc:	46d3      	mov	fp, sl
    10ce:	e717      	b.n	f00 <_vfiprintf_r+0xb4>
    10d0:	f1a2 0330 	sub.w	r3, r2, #48	; 0x30
    10d4:	2400      	movs	r4, #0
    10d6:	f819 2b01 	ldrb.w	r2, [r9], #1
    10da:	eb04 0484 	add.w	r4, r4, r4, lsl #2
    10de:	eb03 0444 	add.w	r4, r3, r4, lsl #1
    10e2:	f1a2 0330 	sub.w	r3, r2, #48	; 0x30
    10e6:	2b09      	cmp	r3, #9
    10e8:	d9f5      	bls.n	10d6 <_vfiprintf_r+0x28a>
    10ea:	9406      	str	r4, [sp, #24]
    10ec:	e71e      	b.n	f2c <_vfiprintf_r+0xe0>
    10ee:	f047 0780 	orr.w	r7, r7, #128	; 0x80
    10f2:	f899 2000 	ldrb.w	r2, [r9]
    10f6:	e717      	b.n	f28 <_vfiprintf_r+0xdc>
    10f8:	2900      	cmp	r1, #0
    10fa:	f040 84ae 	bne.w	1a5a <_vfiprintf_r+0xc0e>
    10fe:	4bc5      	ldr	r3, [pc, #788]	; (1414 <_vfiprintf_r+0x5c8>)
    1100:	930a      	str	r3, [sp, #40]	; 0x28
    1102:	06bc      	lsls	r4, r7, #26
    1104:	f140 81c0 	bpl.w	1488 <_vfiprintf_r+0x63c>
    1108:	9c08      	ldr	r4, [sp, #32]
    110a:	3407      	adds	r4, #7
    110c:	f024 0307 	bic.w	r3, r4, #7
    1110:	e9d3 4500 	ldrd	r4, r5, [r3]
    1114:	f103 0108 	add.w	r1, r3, #8
    1118:	9108      	str	r1, [sp, #32]
    111a:	07fb      	lsls	r3, r7, #31
    111c:	f140 8249 	bpl.w	15b2 <_vfiprintf_r+0x766>
    1120:	ea54 0305 	orrs.w	r3, r4, r5
    1124:	f000 8245 	beq.w	15b2 <_vfiprintf_r+0x766>
    1128:	2330      	movs	r3, #48	; 0x30
    112a:	f88d 3038 	strb.w	r3, [sp, #56]	; 0x38
    112e:	f88d 2039 	strb.w	r2, [sp, #57]	; 0x39
    1132:	f047 0702 	orr.w	r7, r7, #2
    1136:	2302      	movs	r3, #2
    1138:	e032      	b.n	11a0 <_vfiprintf_r+0x354>
    113a:	9b08      	ldr	r3, [sp, #32]
    113c:	681e      	ldr	r6, [r3, #0]
    113e:	f04f 0200 	mov.w	r2, #0
    1142:	f88d 2037 	strb.w	r2, [sp, #55]	; 0x37
    1146:	1d1c      	adds	r4, r3, #4
    1148:	2e00      	cmp	r6, #0
    114a:	f000 83f9 	beq.w	1940 <_vfiprintf_r+0xaf4>
    114e:	f1b8 3fff 	cmp.w	r8, #4294967295	; 0xffffffff
    1152:	f000 843d 	beq.w	19d0 <_vfiprintf_r+0xb84>
    1156:	4642      	mov	r2, r8
    1158:	2100      	movs	r1, #0
    115a:	4630      	mov	r0, r6
    115c:	f001 fd20 	bl	2ba0 <memchr>
    1160:	2800      	cmp	r0, #0
    1162:	f000 844d 	beq.w	1a00 <_vfiprintf_r+0xbb4>
    1166:	1b83      	subs	r3, r0, r6
    1168:	9305      	str	r3, [sp, #20]
    116a:	f89d 3037 	ldrb.w	r3, [sp, #55]	; 0x37
    116e:	9408      	str	r4, [sp, #32]
    1170:	9703      	str	r7, [sp, #12]
    1172:	9309      	str	r3, [sp, #36]	; 0x24
    1174:	f04f 0800 	mov.w	r8, #0
    1178:	e2f1      	b.n	175e <_vfiprintf_r+0x912>
    117a:	f047 0720 	orr.w	r7, r7, #32
    117e:	f899 2000 	ldrb.w	r2, [r9]
    1182:	e6d1      	b.n	f28 <_vfiprintf_r+0xdc>
    1184:	9a08      	ldr	r2, [sp, #32]
    1186:	4ba3      	ldr	r3, [pc, #652]	; (1414 <_vfiprintf_r+0x5c8>)
    1188:	6814      	ldr	r4, [r2, #0]
    118a:	930a      	str	r3, [sp, #40]	; 0x28
    118c:	3204      	adds	r2, #4
    118e:	f647 0330 	movw	r3, #30768	; 0x7830
    1192:	f8ad 3038 	strh.w	r3, [sp, #56]	; 0x38
    1196:	f047 0702 	orr.w	r7, r7, #2
    119a:	9208      	str	r2, [sp, #32]
    119c:	2500      	movs	r5, #0
    119e:	2302      	movs	r3, #2
    11a0:	f04f 0200 	mov.w	r2, #0
    11a4:	f1b8 3fff 	cmp.w	r8, #4294967295	; 0xffffffff
    11a8:	f88d 2037 	strb.w	r2, [sp, #55]	; 0x37
    11ac:	f43f af36 	beq.w	101c <_vfiprintf_r+0x1d0>
    11b0:	2200      	movs	r2, #0
    11b2:	9209      	str	r2, [sp, #36]	; 0x24
    11b4:	f027 0280 	bic.w	r2, r7, #128	; 0x80
    11b8:	9203      	str	r2, [sp, #12]
    11ba:	ea54 0205 	orrs.w	r2, r4, r5
    11be:	f47f af30 	bne.w	1022 <_vfiprintf_r+0x1d6>
    11c2:	f1b8 0f00 	cmp.w	r8, #0
    11c6:	f040 83d7 	bne.w	1978 <_vfiprintf_r+0xb2c>
    11ca:	2b00      	cmp	r3, #0
    11cc:	f040 8331 	bne.w	1832 <_vfiprintf_r+0x9e6>
    11d0:	f017 0301 	ands.w	r3, r7, #1
    11d4:	9305      	str	r3, [sp, #20]
    11d6:	f000 837a 	beq.w	18ce <_vfiprintf_r+0xa82>
    11da:	ae2c      	add	r6, sp, #176	; 0xb0
    11dc:	2330      	movs	r3, #48	; 0x30
    11de:	f806 3d41 	strb.w	r3, [r6, #-65]!
    11e2:	e2bc      	b.n	175e <_vfiprintf_r+0x912>
    11e4:	2900      	cmp	r1, #0
    11e6:	f040 843c 	bne.w	1a62 <_vfiprintf_r+0xc16>
    11ea:	9a08      	ldr	r2, [sp, #32]
    11ec:	06b8      	lsls	r0, r7, #26
    11ee:	f852 3b04 	ldr.w	r3, [r2], #4
    11f2:	9208      	str	r2, [sp, #32]
    11f4:	f100 837a 	bmi.w	18ec <_vfiprintf_r+0xaa0>
    11f8:	06f9      	lsls	r1, r7, #27
    11fa:	f100 83b9 	bmi.w	1970 <_vfiprintf_r+0xb24>
    11fe:	067a      	lsls	r2, r7, #25
    1200:	f140 83b6 	bpl.w	1970 <_vfiprintf_r+0xb24>
    1204:	f8bd 2010 	ldrh.w	r2, [sp, #16]
    1208:	801a      	strh	r2, [r3, #0]
    120a:	e658      	b.n	ebe <_vfiprintf_r+0x72>
    120c:	f899 2000 	ldrb.w	r2, [r9]
    1210:	2a6c      	cmp	r2, #108	; 0x6c
    1212:	bf03      	ittte	eq
    1214:	f899 2001 	ldrbeq.w	r2, [r9, #1]
    1218:	f047 0720 	orreq.w	r7, r7, #32
    121c:	f109 0901 	addeq.w	r9, r9, #1
    1220:	f047 0710 	orrne.w	r7, r7, #16
    1224:	e680      	b.n	f28 <_vfiprintf_r+0xdc>
    1226:	f047 0740 	orr.w	r7, r7, #64	; 0x40
    122a:	f899 2000 	ldrb.w	r2, [r9]
    122e:	e67b      	b.n	f28 <_vfiprintf_r+0xdc>
    1230:	2900      	cmp	r1, #0
    1232:	f040 840e 	bne.w	1a52 <_vfiprintf_r+0xc06>
    1236:	06bb      	lsls	r3, r7, #26
    1238:	f140 813b 	bpl.w	14b2 <_vfiprintf_r+0x666>
    123c:	9c08      	ldr	r4, [sp, #32]
    123e:	3407      	adds	r4, #7
    1240:	f024 0307 	bic.w	r3, r4, #7
    1244:	e9d3 4500 	ldrd	r4, r5, [r3]
    1248:	f103 0208 	add.w	r2, r3, #8
    124c:	9208      	str	r2, [sp, #32]
    124e:	2c00      	cmp	r4, #0
    1250:	f175 0300 	sbcs.w	r3, r5, #0
    1254:	f2c0 8304 	blt.w	1860 <_vfiprintf_r+0xa14>
    1258:	f89d 3037 	ldrb.w	r3, [sp, #55]	; 0x37
    125c:	9309      	str	r3, [sp, #36]	; 0x24
    125e:	f1b8 3fff 	cmp.w	r8, #4294967295	; 0xffffffff
    1262:	f000 82d9 	beq.w	1818 <_vfiprintf_r+0x9cc>
    1266:	2301      	movs	r3, #1
    1268:	e7a4      	b.n	11b4 <_vfiprintf_r+0x368>
    126a:	9b08      	ldr	r3, [sp, #32]
    126c:	f04f 0100 	mov.w	r1, #0
    1270:	681a      	ldr	r2, [r3, #0]
    1272:	f88d 1037 	strb.w	r1, [sp, #55]	; 0x37
    1276:	3304      	adds	r3, #4
    1278:	2101      	movs	r1, #1
    127a:	9101      	str	r1, [sp, #4]
    127c:	f88d 2048 	strb.w	r2, [sp, #72]	; 0x48
    1280:	9308      	str	r3, [sp, #32]
    1282:	9105      	str	r1, [sp, #20]
    1284:	ae12      	add	r6, sp, #72	; 0x48
    1286:	9703      	str	r7, [sp, #12]
    1288:	f04f 0800 	mov.w	r8, #0
    128c:	9b03      	ldr	r3, [sp, #12]
    128e:	f013 0302 	ands.w	r3, r3, #2
    1292:	d002      	beq.n	129a <_vfiprintf_r+0x44e>
    1294:	9a01      	ldr	r2, [sp, #4]
    1296:	3202      	adds	r2, #2
    1298:	9201      	str	r2, [sp, #4]
    129a:	e9dd 1210 	ldrd	r1, r2, [sp, #64]	; 0x40
    129e:	9c03      	ldr	r4, [sp, #12]
    12a0:	1c48      	adds	r0, r1, #1
    12a2:	f014 0484 	ands.w	r4, r4, #132	; 0x84
    12a6:	4684      	mov	ip, r0
    12a8:	9409      	str	r4, [sp, #36]	; 0x24
    12aa:	d138      	bne.n	131e <_vfiprintf_r+0x4d2>
    12ac:	9c06      	ldr	r4, [sp, #24]
    12ae:	9d01      	ldr	r5, [sp, #4]
    12b0:	1b64      	subs	r4, r4, r5
    12b2:	2c00      	cmp	r4, #0
    12b4:	dd33      	ble.n	131e <_vfiprintf_r+0x4d2>
    12b6:	2c10      	cmp	r4, #16
    12b8:	4d57      	ldr	r5, [pc, #348]	; (1418 <_vfiprintf_r+0x5cc>)
    12ba:	f340 8395 	ble.w	19e8 <_vfiprintf_r+0xb9c>
    12be:	46dc      	mov	ip, fp
    12c0:	2710      	movs	r7, #16
    12c2:	469b      	mov	fp, r3
    12c4:	4663      	mov	r3, ip
    12c6:	e007      	b.n	12d8 <_vfiprintf_r+0x48c>
    12c8:	f101 0e02 	add.w	lr, r1, #2
    12cc:	3308      	adds	r3, #8
    12ce:	4601      	mov	r1, r0
    12d0:	3c10      	subs	r4, #16
    12d2:	2c10      	cmp	r4, #16
    12d4:	dd11      	ble.n	12fa <_vfiprintf_r+0x4ae>
    12d6:	1c48      	adds	r0, r1, #1
    12d8:	3210      	adds	r2, #16
    12da:	2807      	cmp	r0, #7
    12dc:	9211      	str	r2, [sp, #68]	; 0x44
    12de:	e9c3 5700 	strd	r5, r7, [r3]
    12e2:	9010      	str	r0, [sp, #64]	; 0x40
    12e4:	ddf0      	ble.n	12c8 <_vfiprintf_r+0x47c>
    12e6:	2a00      	cmp	r2, #0
    12e8:	f040 8245 	bne.w	1776 <_vfiprintf_r+0x92a>
    12ec:	3c10      	subs	r4, #16
    12ee:	2c10      	cmp	r4, #16
    12f0:	4611      	mov	r1, r2
    12f2:	f04f 0e01 	mov.w	lr, #1
    12f6:	4653      	mov	r3, sl
    12f8:	dced      	bgt.n	12d6 <_vfiprintf_r+0x48a>
    12fa:	4619      	mov	r1, r3
    12fc:	465b      	mov	r3, fp
    12fe:	468b      	mov	fp, r1
    1300:	4422      	add	r2, r4
    1302:	f1be 0f07 	cmp.w	lr, #7
    1306:	9211      	str	r2, [sp, #68]	; 0x44
    1308:	e9cb 5400 	strd	r5, r4, [fp]
    130c:	f8cd e040 	str.w	lr, [sp, #64]	; 0x40
    1310:	f300 8256 	bgt.w	17c0 <_vfiprintf_r+0x974>
    1314:	f10b 0b08 	add.w	fp, fp, #8
    1318:	f10e 0c01 	add.w	ip, lr, #1
    131c:	4671      	mov	r1, lr
    131e:	f89d 4037 	ldrb.w	r4, [sp, #55]	; 0x37
    1322:	f10b 0008 	add.w	r0, fp, #8
    1326:	2c00      	cmp	r4, #0
    1328:	f000 8174 	beq.w	1614 <_vfiprintf_r+0x7c8>
    132c:	3201      	adds	r2, #1
    132e:	f10d 0437 	add.w	r4, sp, #55	; 0x37
    1332:	2101      	movs	r1, #1
    1334:	f1bc 0f07 	cmp.w	ip, #7
    1338:	e9cd c210 	strd	ip, r2, [sp, #64]	; 0x40
    133c:	e9cb 4100 	strd	r4, r1, [fp]
    1340:	f340 824e 	ble.w	17e0 <_vfiprintf_r+0x994>
    1344:	2a00      	cmp	r2, #0
    1346:	f040 8155 	bne.w	15f4 <_vfiprintf_r+0x7a8>
    134a:	2b00      	cmp	r3, #0
    134c:	f040 824e 	bne.w	17ec <_vfiprintf_r+0x9a0>
    1350:	468c      	mov	ip, r1
    1352:	a81e      	add	r0, sp, #120	; 0x78
    1354:	4611      	mov	r1, r2
    1356:	46d3      	mov	fp, sl
    1358:	9b09      	ldr	r3, [sp, #36]	; 0x24
    135a:	2b80      	cmp	r3, #128	; 0x80
    135c:	f000 8174 	beq.w	1648 <_vfiprintf_r+0x7fc>
    1360:	9b05      	ldr	r3, [sp, #20]
    1362:	eba8 0503 	sub.w	r5, r8, r3
    1366:	2d00      	cmp	r5, #0
    1368:	dd32      	ble.n	13d0 <_vfiprintf_r+0x584>
    136a:	2d10      	cmp	r5, #16
    136c:	4c2b      	ldr	r4, [pc, #172]	; (141c <_vfiprintf_r+0x5d0>)
    136e:	f340 832d 	ble.w	19cc <_vfiprintf_r+0xb80>
    1372:	2710      	movs	r7, #16
    1374:	f8dd 801c 	ldr.w	r8, [sp, #28]
    1378:	e007      	b.n	138a <_vfiprintf_r+0x53e>
    137a:	f101 0c02 	add.w	ip, r1, #2
    137e:	f10b 0b08 	add.w	fp, fp, #8
    1382:	4619      	mov	r1, r3
    1384:	3d10      	subs	r5, #16
    1386:	2d10      	cmp	r5, #16
    1388:	dd11      	ble.n	13ae <_vfiprintf_r+0x562>
    138a:	1c4b      	adds	r3, r1, #1
    138c:	3210      	adds	r2, #16
    138e:	2b07      	cmp	r3, #7
    1390:	9211      	str	r2, [sp, #68]	; 0x44
    1392:	e9cb 4700 	strd	r4, r7, [fp]
    1396:	9310      	str	r3, [sp, #64]	; 0x40
    1398:	ddef      	ble.n	137a <_vfiprintf_r+0x52e>
    139a:	2a00      	cmp	r2, #0
    139c:	f040 811c 	bne.w	15d8 <_vfiprintf_r+0x78c>
    13a0:	3d10      	subs	r5, #16
    13a2:	2d10      	cmp	r5, #16
    13a4:	f04f 0c01 	mov.w	ip, #1
    13a8:	4611      	mov	r1, r2
    13aa:	46d3      	mov	fp, sl
    13ac:	dced      	bgt.n	138a <_vfiprintf_r+0x53e>
    13ae:	f10b 0108 	add.w	r1, fp, #8
    13b2:	442a      	add	r2, r5
    13b4:	f1bc 0f07 	cmp.w	ip, #7
    13b8:	9211      	str	r2, [sp, #68]	; 0x44
    13ba:	e9cb 4500 	strd	r4, r5, [fp]
    13be:	f8cd c040 	str.w	ip, [sp, #64]	; 0x40
    13c2:	f300 821f 	bgt.w	1804 <_vfiprintf_r+0x9b8>
    13c6:	f10c 0c01 	add.w	ip, ip, #1
    13ca:	f101 0008 	add.w	r0, r1, #8
    13ce:	468b      	mov	fp, r1
    13d0:	9b05      	ldr	r3, [sp, #20]
    13d2:	f8cd c040 	str.w	ip, [sp, #64]	; 0x40
    13d6:	441a      	add	r2, r3
    13d8:	f1bc 0f07 	cmp.w	ip, #7
    13dc:	9211      	str	r2, [sp, #68]	; 0x44
    13de:	e9cb 6300 	strd	r6, r3, [fp]
    13e2:	f340 816f 	ble.w	16c4 <_vfiprintf_r+0x878>
    13e6:	2a00      	cmp	r2, #0
    13e8:	f040 8164 	bne.w	16b4 <_vfiprintf_r+0x868>
    13ec:	9b03      	ldr	r3, [sp, #12]
    13ee:	9210      	str	r2, [sp, #64]	; 0x40
    13f0:	075d      	lsls	r5, r3, #29
    13f2:	d538      	bpl.n	1466 <_vfiprintf_r+0x61a>
    13f4:	9b06      	ldr	r3, [sp, #24]
    13f6:	9901      	ldr	r1, [sp, #4]
    13f8:	1a5c      	subs	r4, r3, r1
    13fa:	2c00      	cmp	r4, #0
    13fc:	dd33      	ble.n	1466 <_vfiprintf_r+0x61a>
    13fe:	4650      	mov	r0, sl
    1400:	2c10      	cmp	r4, #16
    1402:	9f10      	ldr	r7, [sp, #64]	; 0x40
    1404:	4d04      	ldr	r5, [pc, #16]	; (1418 <_vfiprintf_r+0x5cc>)
    1406:	f340 82f9 	ble.w	19fc <_vfiprintf_r+0xbb0>
    140a:	2610      	movs	r6, #16
    140c:	f8dd 801c 	ldr.w	r8, [sp, #28]
    1410:	e00c      	b.n	142c <_vfiprintf_r+0x5e0>
    1412:	bf00      	nop
    1414:	000068fc 	.word	0x000068fc
    1418:	00006918 	.word	0x00006918
    141c:	00006928 	.word	0x00006928
    1420:	1cbb      	adds	r3, r7, #2
    1422:	3008      	adds	r0, #8
    1424:	460f      	mov	r7, r1
    1426:	3c10      	subs	r4, #16
    1428:	2c10      	cmp	r4, #16
    142a:	dd11      	ble.n	1450 <_vfiprintf_r+0x604>
    142c:	1c79      	adds	r1, r7, #1
    142e:	3210      	adds	r2, #16
    1430:	2907      	cmp	r1, #7
    1432:	9211      	str	r2, [sp, #68]	; 0x44
    1434:	e9c0 5600 	strd	r5, r6, [r0]
    1438:	9110      	str	r1, [sp, #64]	; 0x40
    143a:	ddf1      	ble.n	1420 <_vfiprintf_r+0x5d4>
    143c:	2a00      	cmp	r2, #0
    143e:	f040 81a7 	bne.w	1790 <_vfiprintf_r+0x944>
    1442:	3c10      	subs	r4, #16
    1444:	2c10      	cmp	r4, #16
    1446:	f04f 0301 	mov.w	r3, #1
    144a:	4617      	mov	r7, r2
    144c:	4650      	mov	r0, sl
    144e:	dced      	bgt.n	142c <_vfiprintf_r+0x5e0>
    1450:	4422      	add	r2, r4
    1452:	2b07      	cmp	r3, #7
    1454:	9211      	str	r2, [sp, #68]	; 0x44
    1456:	e9c0 5400 	strd	r5, r4, [r0]
    145a:	9310      	str	r3, [sp, #64]	; 0x40
    145c:	f340 813b 	ble.w	16d6 <_vfiprintf_r+0x88a>
    1460:	2a00      	cmp	r2, #0
    1462:	f040 825c 	bne.w	191e <_vfiprintf_r+0xad2>
    1466:	9b04      	ldr	r3, [sp, #16]
    1468:	9a06      	ldr	r2, [sp, #24]
    146a:	9901      	ldr	r1, [sp, #4]
    146c:	428a      	cmp	r2, r1
    146e:	bfac      	ite	ge
    1470:	189b      	addge	r3, r3, r2
    1472:	185b      	addlt	r3, r3, r1
    1474:	9304      	str	r3, [sp, #16]
    1476:	e13d      	b.n	16f4 <_vfiprintf_r+0x8a8>
    1478:	2900      	cmp	r1, #0
    147a:	f040 82e1 	bne.w	1a40 <_vfiprintf_r+0xbf4>
    147e:	4bac      	ldr	r3, [pc, #688]	; (1730 <_vfiprintf_r+0x8e4>)
    1480:	930a      	str	r3, [sp, #40]	; 0x28
    1482:	06bc      	lsls	r4, r7, #26
    1484:	f53f ae40 	bmi.w	1108 <_vfiprintf_r+0x2bc>
    1488:	9b08      	ldr	r3, [sp, #32]
    148a:	06f8      	lsls	r0, r7, #27
    148c:	f853 4b04 	ldr.w	r4, [r3], #4
    1490:	9308      	str	r3, [sp, #32]
    1492:	f100 81dd 	bmi.w	1850 <_vfiprintf_r+0xa04>
    1496:	0679      	lsls	r1, r7, #25
    1498:	f140 81da 	bpl.w	1850 <_vfiprintf_r+0xa04>
    149c:	b2a4      	uxth	r4, r4
    149e:	2500      	movs	r5, #0
    14a0:	e63b      	b.n	111a <_vfiprintf_r+0x2ce>
    14a2:	2900      	cmp	r1, #0
    14a4:	f040 82d2 	bne.w	1a4c <_vfiprintf_r+0xc00>
    14a8:	f047 0710 	orr.w	r7, r7, #16
    14ac:	06bb      	lsls	r3, r7, #26
    14ae:	f53f aec5 	bmi.w	123c <_vfiprintf_r+0x3f0>
    14b2:	9b08      	ldr	r3, [sp, #32]
    14b4:	06fe      	lsls	r6, r7, #27
    14b6:	f853 4b04 	ldr.w	r4, [r3], #4
    14ba:	9308      	str	r3, [sp, #32]
    14bc:	f100 81ca 	bmi.w	1854 <_vfiprintf_r+0xa08>
    14c0:	067d      	lsls	r5, r7, #25
    14c2:	f140 81c7 	bpl.w	1854 <_vfiprintf_r+0xa08>
    14c6:	b224      	sxth	r4, r4
    14c8:	17e5      	asrs	r5, r4, #31
    14ca:	e6c0      	b.n	124e <_vfiprintf_r+0x402>
    14cc:	9b08      	ldr	r3, [sp, #32]
    14ce:	f899 2000 	ldrb.w	r2, [r9]
    14d2:	681c      	ldr	r4, [r3, #0]
    14d4:	9406      	str	r4, [sp, #24]
    14d6:	2c00      	cmp	r4, #0
    14d8:	f103 0304 	add.w	r3, r3, #4
    14dc:	f2c0 8215 	blt.w	190a <_vfiprintf_r+0xabe>
    14e0:	9308      	str	r3, [sp, #32]
    14e2:	e521      	b.n	f28 <_vfiprintf_r+0xdc>
    14e4:	f047 0701 	orr.w	r7, r7, #1
    14e8:	f899 2000 	ldrb.w	r2, [r9]
    14ec:	e51c      	b.n	f28 <_vfiprintf_r+0xdc>
    14ee:	f899 2000 	ldrb.w	r2, [r9]
    14f2:	2800      	cmp	r0, #0
    14f4:	f47f ad18 	bne.w	f28 <_vfiprintf_r+0xdc>
    14f8:	2101      	movs	r1, #1
    14fa:	2020      	movs	r0, #32
    14fc:	e514      	b.n	f28 <_vfiprintf_r+0xdc>
    14fe:	f899 2000 	ldrb.w	r2, [r9]
    1502:	f047 0704 	orr.w	r7, r7, #4
    1506:	e50f      	b.n	f28 <_vfiprintf_r+0xdc>
    1508:	f899 2000 	ldrb.w	r2, [r9]
    150c:	2101      	movs	r1, #1
    150e:	202b      	movs	r0, #43	; 0x2b
    1510:	e50a      	b.n	f28 <_vfiprintf_r+0xdc>
    1512:	f899 2000 	ldrb.w	r2, [r9]
    1516:	2a2a      	cmp	r2, #42	; 0x2a
    1518:	f109 0401 	add.w	r4, r9, #1
    151c:	f000 8285 	beq.w	1a2a <_vfiprintf_r+0xbde>
    1520:	f1a2 0330 	sub.w	r3, r2, #48	; 0x30
    1524:	2b09      	cmp	r3, #9
    1526:	46a1      	mov	r9, r4
    1528:	f04f 0800 	mov.w	r8, #0
    152c:	f63f acfe 	bhi.w	f2c <_vfiprintf_r+0xe0>
    1530:	f819 2b01 	ldrb.w	r2, [r9], #1
    1534:	eb08 0888 	add.w	r8, r8, r8, lsl #2
    1538:	eb03 0848 	add.w	r8, r3, r8, lsl #1
    153c:	f1a2 0330 	sub.w	r3, r2, #48	; 0x30
    1540:	2b09      	cmp	r3, #9
    1542:	d9f5      	bls.n	1530 <_vfiprintf_r+0x6e4>
    1544:	e4f2      	b.n	f2c <_vfiprintf_r+0xe0>
    1546:	9b08      	ldr	r3, [sp, #32]
    1548:	06fe      	lsls	r6, r7, #27
    154a:	f853 4b04 	ldr.w	r4, [r3], #4
    154e:	9308      	str	r3, [sp, #32]
    1550:	f140 81c6 	bpl.w	18e0 <_vfiprintf_r+0xa94>
    1554:	2500      	movs	r5, #0
    1556:	2301      	movs	r3, #1
    1558:	e622      	b.n	11a0 <_vfiprintf_r+0x354>
    155a:	9a08      	ldr	r2, [sp, #32]
    155c:	f852 4b04 	ldr.w	r4, [r2], #4
    1560:	9208      	str	r2, [sp, #32]
    1562:	f017 0210 	ands.w	r2, r7, #16
    1566:	f000 81b4 	beq.w	18d2 <_vfiprintf_r+0xa86>
    156a:	2500      	movs	r5, #0
    156c:	e618      	b.n	11a0 <_vfiprintf_r+0x354>
    156e:	89aa      	ldrh	r2, [r5, #12]
    1570:	f002 031a 	and.w	r3, r2, #26
    1574:	2b0a      	cmp	r3, #10
    1576:	f47f ac98 	bne.w	eaa <_vfiprintf_r+0x5e>
    157a:	9902      	ldr	r1, [sp, #8]
    157c:	f9b1 300e 	ldrsh.w	r3, [r1, #14]
    1580:	2b00      	cmp	r3, #0
    1582:	f6ff ac92 	blt.w	eaa <_vfiprintf_r+0x5e>
    1586:	6e4b      	ldr	r3, [r1, #100]	; 0x64
    1588:	07d8      	lsls	r0, r3, #31
    158a:	d404      	bmi.n	1596 <_vfiprintf_r+0x74a>
    158c:	0592      	lsls	r2, r2, #22
    158e:	d402      	bmi.n	1596 <_vfiprintf_r+0x74a>
    1590:	6d88      	ldr	r0, [r1, #88]	; 0x58
    1592:	f7fe fec7 	bl	324 <__retarget_lock_release_recursive>
    1596:	4623      	mov	r3, r4
    1598:	464a      	mov	r2, r9
    159a:	9902      	ldr	r1, [sp, #8]
    159c:	9807      	ldr	r0, [sp, #28]
    159e:	f000 fa67 	bl	1a70 <__sbprintf>
    15a2:	9004      	str	r0, [sp, #16]
    15a4:	9804      	ldr	r0, [sp, #16]
    15a6:	b02d      	add	sp, #180	; 0xb4
    15a8:	e8bd 8ff0 	ldmia.w	sp!, {r4, r5, r6, r7, r8, r9, sl, fp, pc}
    15ac:	f000 fc0e 	bl	1dcc <__sinit>
    15b0:	e459      	b.n	e66 <_vfiprintf_r+0x1a>
    15b2:	2302      	movs	r3, #2
    15b4:	e5f4      	b.n	11a0 <_vfiprintf_r+0x354>
    15b6:	2900      	cmp	r1, #0
    15b8:	f040 8245 	bne.w	1a46 <_vfiprintf_r+0xbfa>
    15bc:	2a00      	cmp	r2, #0
    15be:	f000 80a1 	beq.w	1704 <_vfiprintf_r+0x8b8>
    15c2:	2301      	movs	r3, #1
    15c4:	f88d 2048 	strb.w	r2, [sp, #72]	; 0x48
    15c8:	f04f 0200 	mov.w	r2, #0
    15cc:	9301      	str	r3, [sp, #4]
    15ce:	f88d 2037 	strb.w	r2, [sp, #55]	; 0x37
    15d2:	9305      	str	r3, [sp, #20]
    15d4:	ae12      	add	r6, sp, #72	; 0x48
    15d6:	e656      	b.n	1286 <_vfiprintf_r+0x43a>
    15d8:	aa0f      	add	r2, sp, #60	; 0x3c
    15da:	9902      	ldr	r1, [sp, #8]
    15dc:	4640      	mov	r0, r8
    15de:	f7ff fbf9 	bl	dd4 <__sprint_r.part.0>
    15e2:	2800      	cmp	r0, #0
    15e4:	f040 8094 	bne.w	1710 <_vfiprintf_r+0x8c4>
    15e8:	e9dd 1210 	ldrd	r1, r2, [sp, #64]	; 0x40
    15ec:	46d3      	mov	fp, sl
    15ee:	f101 0c01 	add.w	ip, r1, #1
    15f2:	e6c7      	b.n	1384 <_vfiprintf_r+0x538>
    15f4:	aa0f      	add	r2, sp, #60	; 0x3c
    15f6:	9902      	ldr	r1, [sp, #8]
    15f8:	9807      	ldr	r0, [sp, #28]
    15fa:	930b      	str	r3, [sp, #44]	; 0x2c
    15fc:	f7ff fbea 	bl	dd4 <__sprint_r.part.0>
    1600:	2800      	cmp	r0, #0
    1602:	f040 8085 	bne.w	1710 <_vfiprintf_r+0x8c4>
    1606:	e9dd 1210 	ldrd	r1, r2, [sp, #64]	; 0x40
    160a:	9b0b      	ldr	r3, [sp, #44]	; 0x2c
    160c:	f101 0c01 	add.w	ip, r1, #1
    1610:	a81e      	add	r0, sp, #120	; 0x78
    1612:	46d3      	mov	fp, sl
    1614:	2b00      	cmp	r3, #0
    1616:	f43f ae9f 	beq.w	1358 <_vfiprintf_r+0x50c>
    161a:	3202      	adds	r2, #2
    161c:	ac0e      	add	r4, sp, #56	; 0x38
    161e:	2102      	movs	r1, #2
    1620:	f1bc 0f07 	cmp.w	ip, #7
    1624:	e9cd c210 	strd	ip, r2, [sp, #64]	; 0x40
    1628:	e9cb 4100 	strd	r4, r1, [fp]
    162c:	f340 80e4 	ble.w	17f8 <_vfiprintf_r+0x9ac>
    1630:	2a00      	cmp	r2, #0
    1632:	f040 811d 	bne.w	1870 <_vfiprintf_r+0xa24>
    1636:	9b09      	ldr	r3, [sp, #36]	; 0x24
    1638:	2b80      	cmp	r3, #128	; 0x80
    163a:	a81e      	add	r0, sp, #120	; 0x78
    163c:	f04f 0c01 	mov.w	ip, #1
    1640:	4611      	mov	r1, r2
    1642:	46d3      	mov	fp, sl
    1644:	f47f ae8c 	bne.w	1360 <_vfiprintf_r+0x514>
    1648:	9b06      	ldr	r3, [sp, #24]
    164a:	9c01      	ldr	r4, [sp, #4]
    164c:	1b1d      	subs	r5, r3, r4
    164e:	2d00      	cmp	r5, #0
    1650:	f77f ae86 	ble.w	1360 <_vfiprintf_r+0x514>
    1654:	2d10      	cmp	r5, #16
    1656:	4c37      	ldr	r4, [pc, #220]	; (1734 <_vfiprintf_r+0x8e8>)
    1658:	f340 81db 	ble.w	1a12 <_vfiprintf_r+0xbc6>
    165c:	2710      	movs	r7, #16
    165e:	e006      	b.n	166e <_vfiprintf_r+0x822>
    1660:	1c88      	adds	r0, r1, #2
    1662:	f10b 0b08 	add.w	fp, fp, #8
    1666:	4619      	mov	r1, r3
    1668:	3d10      	subs	r5, #16
    166a:	2d10      	cmp	r5, #16
    166c:	dd11      	ble.n	1692 <_vfiprintf_r+0x846>
    166e:	1c4b      	adds	r3, r1, #1
    1670:	3210      	adds	r2, #16
    1672:	2b07      	cmp	r3, #7
    1674:	9211      	str	r2, [sp, #68]	; 0x44
    1676:	e9cb 4700 	strd	r4, r7, [fp]
    167a:	9310      	str	r3, [sp, #64]	; 0x40
    167c:	ddf0      	ble.n	1660 <_vfiprintf_r+0x814>
    167e:	2a00      	cmp	r2, #0
    1680:	f040 8092 	bne.w	17a8 <_vfiprintf_r+0x95c>
    1684:	3d10      	subs	r5, #16
    1686:	2d10      	cmp	r5, #16
    1688:	f04f 0001 	mov.w	r0, #1
    168c:	4611      	mov	r1, r2
    168e:	46d3      	mov	fp, sl
    1690:	dced      	bgt.n	166e <_vfiprintf_r+0x822>
    1692:	f10b 0708 	add.w	r7, fp, #8
    1696:	442a      	add	r2, r5
    1698:	2807      	cmp	r0, #7
    169a:	9211      	str	r2, [sp, #68]	; 0x44
    169c:	e9cb 4500 	strd	r4, r5, [fp]
    16a0:	9010      	str	r0, [sp, #64]	; 0x40
    16a2:	f300 80f4 	bgt.w	188e <_vfiprintf_r+0xa42>
    16a6:	f100 0c01 	add.w	ip, r0, #1
    16aa:	4601      	mov	r1, r0
    16ac:	46bb      	mov	fp, r7
    16ae:	f107 0008 	add.w	r0, r7, #8
    16b2:	e655      	b.n	1360 <_vfiprintf_r+0x514>
    16b4:	aa0f      	add	r2, sp, #60	; 0x3c
    16b6:	9902      	ldr	r1, [sp, #8]
    16b8:	9807      	ldr	r0, [sp, #28]
    16ba:	f7ff fb8b 	bl	dd4 <__sprint_r.part.0>
    16be:	bb38      	cbnz	r0, 1710 <_vfiprintf_r+0x8c4>
    16c0:	9a11      	ldr	r2, [sp, #68]	; 0x44
    16c2:	4650      	mov	r0, sl
    16c4:	9b03      	ldr	r3, [sp, #12]
    16c6:	075c      	lsls	r4, r3, #29
    16c8:	d505      	bpl.n	16d6 <_vfiprintf_r+0x88a>
    16ca:	9b06      	ldr	r3, [sp, #24]
    16cc:	9901      	ldr	r1, [sp, #4]
    16ce:	1a5c      	subs	r4, r3, r1
    16d0:	2c00      	cmp	r4, #0
    16d2:	f73f ae95 	bgt.w	1400 <_vfiprintf_r+0x5b4>
    16d6:	9b04      	ldr	r3, [sp, #16]
    16d8:	9906      	ldr	r1, [sp, #24]
    16da:	9801      	ldr	r0, [sp, #4]
    16dc:	4281      	cmp	r1, r0
    16de:	bfac      	ite	ge
    16e0:	185b      	addge	r3, r3, r1
    16e2:	181b      	addlt	r3, r3, r0
    16e4:	9304      	str	r3, [sp, #16]
    16e6:	b12a      	cbz	r2, 16f4 <_vfiprintf_r+0x8a8>
    16e8:	aa0f      	add	r2, sp, #60	; 0x3c
    16ea:	9902      	ldr	r1, [sp, #8]
    16ec:	9807      	ldr	r0, [sp, #28]
    16ee:	f7ff fb71 	bl	dd4 <__sprint_r.part.0>
    16f2:	b968      	cbnz	r0, 1710 <_vfiprintf_r+0x8c4>
    16f4:	2300      	movs	r3, #0
    16f6:	9310      	str	r3, [sp, #64]	; 0x40
    16f8:	f899 3000 	ldrb.w	r3, [r9]
    16fc:	46d3      	mov	fp, sl
    16fe:	2b00      	cmp	r3, #0
    1700:	f47f abe2 	bne.w	ec8 <_vfiprintf_r+0x7c>
    1704:	9b11      	ldr	r3, [sp, #68]	; 0x44
    1706:	2b00      	cmp	r3, #0
    1708:	f040 8186 	bne.w	1a18 <_vfiprintf_r+0xbcc>
    170c:	2300      	movs	r3, #0
    170e:	9310      	str	r3, [sp, #64]	; 0x40
    1710:	9b02      	ldr	r3, [sp, #8]
    1712:	6e5a      	ldr	r2, [r3, #100]	; 0x64
    1714:	899b      	ldrh	r3, [r3, #12]
    1716:	07d1      	lsls	r1, r2, #31
    1718:	d402      	bmi.n	1720 <_vfiprintf_r+0x8d4>
    171a:	059a      	lsls	r2, r3, #22
    171c:	f140 80f9 	bpl.w	1912 <_vfiprintf_r+0xac6>
    1720:	065b      	lsls	r3, r3, #25
    1722:	f53f acc8 	bmi.w	10b6 <_vfiprintf_r+0x26a>
    1726:	9804      	ldr	r0, [sp, #16]
    1728:	b02d      	add	sp, #180	; 0xb4
    172a:	e8bd 8ff0 	ldmia.w	sp!, {r4, r5, r6, r7, r8, r9, sl, fp, pc}
    172e:	bf00      	nop
    1730:	000068e8 	.word	0x000068e8
    1734:	00006928 	.word	0x00006928
    1738:	980a      	ldr	r0, [sp, #40]	; 0x28
    173a:	4656      	mov	r6, sl
    173c:	0923      	lsrs	r3, r4, #4
    173e:	f004 010f 	and.w	r1, r4, #15
    1742:	ea43 7305 	orr.w	r3, r3, r5, lsl #28
    1746:	092a      	lsrs	r2, r5, #4
    1748:	461c      	mov	r4, r3
    174a:	4615      	mov	r5, r2
    174c:	5c43      	ldrb	r3, [r0, r1]
    174e:	f806 3d01 	strb.w	r3, [r6, #-1]!
    1752:	ea54 0305 	orrs.w	r3, r4, r5
    1756:	d1f1      	bne.n	173c <_vfiprintf_r+0x8f0>
    1758:	ebaa 0306 	sub.w	r3, sl, r6
    175c:	9305      	str	r3, [sp, #20]
    175e:	9b05      	ldr	r3, [sp, #20]
    1760:	9a09      	ldr	r2, [sp, #36]	; 0x24
    1762:	4543      	cmp	r3, r8
    1764:	bfb8      	it	lt
    1766:	4643      	movlt	r3, r8
    1768:	9301      	str	r3, [sp, #4]
    176a:	2a00      	cmp	r2, #0
    176c:	f43f ad8e 	beq.w	128c <_vfiprintf_r+0x440>
    1770:	3301      	adds	r3, #1
    1772:	9301      	str	r3, [sp, #4]
    1774:	e58a      	b.n	128c <_vfiprintf_r+0x440>
    1776:	aa0f      	add	r2, sp, #60	; 0x3c
    1778:	9902      	ldr	r1, [sp, #8]
    177a:	9807      	ldr	r0, [sp, #28]
    177c:	f7ff fb2a 	bl	dd4 <__sprint_r.part.0>
    1780:	2800      	cmp	r0, #0
    1782:	d1c5      	bne.n	1710 <_vfiprintf_r+0x8c4>
    1784:	e9dd 1210 	ldrd	r1, r2, [sp, #64]	; 0x40
    1788:	4653      	mov	r3, sl
    178a:	f101 0e01 	add.w	lr, r1, #1
    178e:	e59f      	b.n	12d0 <_vfiprintf_r+0x484>
    1790:	aa0f      	add	r2, sp, #60	; 0x3c
    1792:	9902      	ldr	r1, [sp, #8]
    1794:	4640      	mov	r0, r8
    1796:	f7ff fb1d 	bl	dd4 <__sprint_r.part.0>
    179a:	2800      	cmp	r0, #0
    179c:	d1b8      	bne.n	1710 <_vfiprintf_r+0x8c4>
    179e:	e9dd 7210 	ldrd	r7, r2, [sp, #64]	; 0x40
    17a2:	4650      	mov	r0, sl
    17a4:	1c7b      	adds	r3, r7, #1
    17a6:	e63e      	b.n	1426 <_vfiprintf_r+0x5da>
    17a8:	aa0f      	add	r2, sp, #60	; 0x3c
    17aa:	9902      	ldr	r1, [sp, #8]
    17ac:	9807      	ldr	r0, [sp, #28]
    17ae:	f7ff fb11 	bl	dd4 <__sprint_r.part.0>
    17b2:	2800      	cmp	r0, #0
    17b4:	d1ac      	bne.n	1710 <_vfiprintf_r+0x8c4>
    17b6:	e9dd 1210 	ldrd	r1, r2, [sp, #64]	; 0x40
    17ba:	46d3      	mov	fp, sl
    17bc:	1c48      	adds	r0, r1, #1
    17be:	e753      	b.n	1668 <_vfiprintf_r+0x81c>
    17c0:	2a00      	cmp	r2, #0
    17c2:	f040 80f3 	bne.w	19ac <_vfiprintf_r+0xb60>
    17c6:	f89d 1037 	ldrb.w	r1, [sp, #55]	; 0x37
    17ca:	2900      	cmp	r1, #0
    17cc:	f000 8095 	beq.w	18fa <_vfiprintf_r+0xaae>
    17d0:	2101      	movs	r1, #1
    17d2:	f10d 0037 	add.w	r0, sp, #55	; 0x37
    17d6:	901c      	str	r0, [sp, #112]	; 0x70
    17d8:	460a      	mov	r2, r1
    17da:	911d      	str	r1, [sp, #116]	; 0x74
    17dc:	468c      	mov	ip, r1
    17de:	a81e      	add	r0, sp, #120	; 0x78
    17e0:	4661      	mov	r1, ip
    17e2:	4683      	mov	fp, r0
    17e4:	f10c 0c01 	add.w	ip, ip, #1
    17e8:	3008      	adds	r0, #8
    17ea:	e713      	b.n	1614 <_vfiprintf_r+0x7c8>
    17ec:	a80e      	add	r0, sp, #56	; 0x38
    17ee:	2202      	movs	r2, #2
    17f0:	e9cd 021c 	strd	r0, r2, [sp, #112]	; 0x70
    17f4:	468c      	mov	ip, r1
    17f6:	a81e      	add	r0, sp, #120	; 0x78
    17f8:	4661      	mov	r1, ip
    17fa:	4683      	mov	fp, r0
    17fc:	f10c 0c01 	add.w	ip, ip, #1
    1800:	3008      	adds	r0, #8
    1802:	e5a9      	b.n	1358 <_vfiprintf_r+0x50c>
    1804:	2a00      	cmp	r2, #0
    1806:	d14a      	bne.n	189e <_vfiprintf_r+0xa52>
    1808:	9a05      	ldr	r2, [sp, #20]
    180a:	921d      	str	r2, [sp, #116]	; 0x74
    180c:	2101      	movs	r1, #1
    180e:	9211      	str	r2, [sp, #68]	; 0x44
    1810:	961c      	str	r6, [sp, #112]	; 0x70
    1812:	9110      	str	r1, [sp, #64]	; 0x40
    1814:	a81e      	add	r0, sp, #120	; 0x78
    1816:	e755      	b.n	16c4 <_vfiprintf_r+0x878>
    1818:	9703      	str	r7, [sp, #12]
    181a:	2d00      	cmp	r5, #0
    181c:	bf08      	it	eq
    181e:	2c0a      	cmpeq	r4, #10
    1820:	f080 80ae 	bcs.w	1980 <_vfiprintf_r+0xb34>
    1824:	ae2c      	add	r6, sp, #176	; 0xb0
    1826:	3430      	adds	r4, #48	; 0x30
    1828:	2301      	movs	r3, #1
    182a:	f806 4d41 	strb.w	r4, [r6, #-65]!
    182e:	9305      	str	r3, [sp, #20]
    1830:	e795      	b.n	175e <_vfiprintf_r+0x912>
    1832:	f8cd 8014 	str.w	r8, [sp, #20]
    1836:	4656      	mov	r6, sl
    1838:	e791      	b.n	175e <_vfiprintf_r+0x912>
    183a:	aa0f      	add	r2, sp, #60	; 0x3c
    183c:	9902      	ldr	r1, [sp, #8]
    183e:	9807      	ldr	r0, [sp, #28]
    1840:	f7ff fac8 	bl	dd4 <__sprint_r.part.0>
    1844:	2800      	cmp	r0, #0
    1846:	f47f af63 	bne.w	1710 <_vfiprintf_r+0x8c4>
    184a:	46d3      	mov	fp, sl
    184c:	f7ff bb58 	b.w	f00 <_vfiprintf_r+0xb4>
    1850:	2500      	movs	r5, #0
    1852:	e462      	b.n	111a <_vfiprintf_r+0x2ce>
    1854:	17e5      	asrs	r5, r4, #31
    1856:	2c00      	cmp	r4, #0
    1858:	f175 0300 	sbcs.w	r3, r5, #0
    185c:	f6bf acfc 	bge.w	1258 <_vfiprintf_r+0x40c>
    1860:	232d      	movs	r3, #45	; 0x2d
    1862:	4264      	negs	r4, r4
    1864:	eb65 0545 	sbc.w	r5, r5, r5, lsl #1
    1868:	f88d 3037 	strb.w	r3, [sp, #55]	; 0x37
    186c:	9309      	str	r3, [sp, #36]	; 0x24
    186e:	e4f6      	b.n	125e <_vfiprintf_r+0x412>
    1870:	aa0f      	add	r2, sp, #60	; 0x3c
    1872:	9902      	ldr	r1, [sp, #8]
    1874:	9807      	ldr	r0, [sp, #28]
    1876:	f7ff faad 	bl	dd4 <__sprint_r.part.0>
    187a:	2800      	cmp	r0, #0
    187c:	f47f af48 	bne.w	1710 <_vfiprintf_r+0x8c4>
    1880:	e9dd 1210 	ldrd	r1, r2, [sp, #64]	; 0x40
    1884:	a81e      	add	r0, sp, #120	; 0x78
    1886:	f101 0c01 	add.w	ip, r1, #1
    188a:	46d3      	mov	fp, sl
    188c:	e564      	b.n	1358 <_vfiprintf_r+0x50c>
    188e:	2a00      	cmp	r2, #0
    1890:	d15f      	bne.n	1952 <_vfiprintf_r+0xb06>
    1892:	a81e      	add	r0, sp, #120	; 0x78
    1894:	f04f 0c01 	mov.w	ip, #1
    1898:	4611      	mov	r1, r2
    189a:	46d3      	mov	fp, sl
    189c:	e560      	b.n	1360 <_vfiprintf_r+0x514>
    189e:	aa0f      	add	r2, sp, #60	; 0x3c
    18a0:	9902      	ldr	r1, [sp, #8]
    18a2:	9807      	ldr	r0, [sp, #28]
    18a4:	f7ff fa96 	bl	dd4 <__sprint_r.part.0>
    18a8:	2800      	cmp	r0, #0
    18aa:	f47f af31 	bne.w	1710 <_vfiprintf_r+0x8c4>
    18ae:	e9dd 1210 	ldrd	r1, r2, [sp, #64]	; 0x40
    18b2:	a81e      	add	r0, sp, #120	; 0x78
    18b4:	f101 0c01 	add.w	ip, r1, #1
    18b8:	46d3      	mov	fp, sl
    18ba:	e589      	b.n	13d0 <_vfiprintf_r+0x584>
    18bc:	9d02      	ldr	r5, [sp, #8]
    18be:	6da8      	ldr	r0, [r5, #88]	; 0x58
    18c0:	f7fe fd2e 	bl	320 <__retarget_lock_acquire_recursive>
    18c4:	f9b5 100c 	ldrsh.w	r1, [r5, #12]
    18c8:	b28a      	uxth	r2, r1
    18ca:	f7ff bad6 	b.w	e7a <_vfiprintf_r+0x2e>
    18ce:	4656      	mov	r6, sl
    18d0:	e745      	b.n	175e <_vfiprintf_r+0x912>
    18d2:	f017 0340 	ands.w	r3, r7, #64	; 0x40
    18d6:	bf1c      	itt	ne
    18d8:	4613      	movne	r3, r2
    18da:	b2a4      	uxthne	r4, r4
    18dc:	2500      	movs	r5, #0
    18de:	e45f      	b.n	11a0 <_vfiprintf_r+0x354>
    18e0:	067d      	lsls	r5, r7, #25
    18e2:	bf48      	it	mi
    18e4:	b2a4      	uxthmi	r4, r4
    18e6:	2500      	movs	r5, #0
    18e8:	2301      	movs	r3, #1
    18ea:	e459      	b.n	11a0 <_vfiprintf_r+0x354>
    18ec:	9a04      	ldr	r2, [sp, #16]
    18ee:	4610      	mov	r0, r2
    18f0:	17d1      	asrs	r1, r2, #31
    18f2:	e9c3 0100 	strd	r0, r1, [r3]
    18f6:	f7ff bae2 	b.w	ebe <_vfiprintf_r+0x72>
    18fa:	2b00      	cmp	r3, #0
    18fc:	d176      	bne.n	19ec <_vfiprintf_r+0xba0>
    18fe:	4611      	mov	r1, r2
    1900:	a81e      	add	r0, sp, #120	; 0x78
    1902:	f04f 0c01 	mov.w	ip, #1
    1906:	46d3      	mov	fp, sl
    1908:	e52a      	b.n	1360 <_vfiprintf_r+0x514>
    190a:	4264      	negs	r4, r4
    190c:	9406      	str	r4, [sp, #24]
    190e:	9308      	str	r3, [sp, #32]
    1910:	e5f7      	b.n	1502 <_vfiprintf_r+0x6b6>
    1912:	9c02      	ldr	r4, [sp, #8]
    1914:	6da0      	ldr	r0, [r4, #88]	; 0x58
    1916:	f7fe fd05 	bl	324 <__retarget_lock_release_recursive>
    191a:	89a3      	ldrh	r3, [r4, #12]
    191c:	e700      	b.n	1720 <_vfiprintf_r+0x8d4>
    191e:	aa0f      	add	r2, sp, #60	; 0x3c
    1920:	9902      	ldr	r1, [sp, #8]
    1922:	9807      	ldr	r0, [sp, #28]
    1924:	f7ff fa56 	bl	dd4 <__sprint_r.part.0>
    1928:	2800      	cmp	r0, #0
    192a:	f47f aef1 	bne.w	1710 <_vfiprintf_r+0x8c4>
    192e:	9a11      	ldr	r2, [sp, #68]	; 0x44
    1930:	e6d1      	b.n	16d6 <_vfiprintf_r+0x88a>
    1932:	6d90      	ldr	r0, [r2, #88]	; 0x58
    1934:	f7fe fcf6 	bl	324 <__retarget_lock_release_recursive>
    1938:	f04f 33ff 	mov.w	r3, #4294967295	; 0xffffffff
    193c:	9304      	str	r3, [sp, #16]
    193e:	e6f2      	b.n	1726 <_vfiprintf_r+0x8da>
    1940:	4643      	mov	r3, r8
    1942:	2b06      	cmp	r3, #6
    1944:	bf28      	it	cs
    1946:	2306      	movcs	r3, #6
    1948:	9305      	str	r3, [sp, #20]
    194a:	9408      	str	r4, [sp, #32]
    194c:	9301      	str	r3, [sp, #4]
    194e:	4e47      	ldr	r6, [pc, #284]	; (1a6c <_vfiprintf_r+0xc20>)
    1950:	e499      	b.n	1286 <_vfiprintf_r+0x43a>
    1952:	aa0f      	add	r2, sp, #60	; 0x3c
    1954:	9902      	ldr	r1, [sp, #8]
    1956:	9807      	ldr	r0, [sp, #28]
    1958:	f7ff fa3c 	bl	dd4 <__sprint_r.part.0>
    195c:	2800      	cmp	r0, #0
    195e:	f47f aed7 	bne.w	1710 <_vfiprintf_r+0x8c4>
    1962:	e9dd 1210 	ldrd	r1, r2, [sp, #64]	; 0x40
    1966:	a81e      	add	r0, sp, #120	; 0x78
    1968:	f101 0c01 	add.w	ip, r1, #1
    196c:	46d3      	mov	fp, sl
    196e:	e4f7      	b.n	1360 <_vfiprintf_r+0x514>
    1970:	9a04      	ldr	r2, [sp, #16]
    1972:	601a      	str	r2, [r3, #0]
    1974:	f7ff baa3 	b.w	ebe <_vfiprintf_r+0x72>
    1978:	2b01      	cmp	r3, #1
    197a:	f47f ab55 	bne.w	1028 <_vfiprintf_r+0x1dc>
    197e:	e751      	b.n	1824 <_vfiprintf_r+0x9d8>
    1980:	4656      	mov	r6, sl
    1982:	4620      	mov	r0, r4
    1984:	4629      	mov	r1, r5
    1986:	220a      	movs	r2, #10
    1988:	2300      	movs	r3, #0
    198a:	f004 fcff 	bl	638c <__aeabi_uldivmod>
    198e:	3230      	adds	r2, #48	; 0x30
    1990:	f806 2d01 	strb.w	r2, [r6, #-1]!
    1994:	4620      	mov	r0, r4
    1996:	4629      	mov	r1, r5
    1998:	2300      	movs	r3, #0
    199a:	220a      	movs	r2, #10
    199c:	f004 fcf6 	bl	638c <__aeabi_uldivmod>
    19a0:	4604      	mov	r4, r0
    19a2:	460d      	mov	r5, r1
    19a4:	ea54 0305 	orrs.w	r3, r4, r5
    19a8:	d1eb      	bne.n	1982 <_vfiprintf_r+0xb36>
    19aa:	e6d5      	b.n	1758 <_vfiprintf_r+0x90c>
    19ac:	aa0f      	add	r2, sp, #60	; 0x3c
    19ae:	9902      	ldr	r1, [sp, #8]
    19b0:	9807      	ldr	r0, [sp, #28]
    19b2:	930b      	str	r3, [sp, #44]	; 0x2c
    19b4:	f7ff fa0e 	bl	dd4 <__sprint_r.part.0>
    19b8:	2800      	cmp	r0, #0
    19ba:	f47f aea9 	bne.w	1710 <_vfiprintf_r+0x8c4>
    19be:	e9dd 1210 	ldrd	r1, r2, [sp, #64]	; 0x40
    19c2:	46d3      	mov	fp, sl
    19c4:	f101 0c01 	add.w	ip, r1, #1
    19c8:	9b0b      	ldr	r3, [sp, #44]	; 0x2c
    19ca:	e4a8      	b.n	131e <_vfiprintf_r+0x4d2>
    19cc:	4601      	mov	r1, r0
    19ce:	e4f0      	b.n	13b2 <_vfiprintf_r+0x566>
    19d0:	4630      	mov	r0, r6
    19d2:	9408      	str	r4, [sp, #32]
    19d4:	9703      	str	r7, [sp, #12]
    19d6:	f001 fc53 	bl	3280 <strlen>
    19da:	f89d 3037 	ldrb.w	r3, [sp, #55]	; 0x37
    19de:	9005      	str	r0, [sp, #20]
    19e0:	9309      	str	r3, [sp, #36]	; 0x24
    19e2:	f04f 0800 	mov.w	r8, #0
    19e6:	e6ba      	b.n	175e <_vfiprintf_r+0x912>
    19e8:	4686      	mov	lr, r0
    19ea:	e489      	b.n	1300 <_vfiprintf_r+0x4b4>
    19ec:	a90e      	add	r1, sp, #56	; 0x38
    19ee:	2202      	movs	r2, #2
    19f0:	e9cd 121c 	strd	r1, r2, [sp, #112]	; 0x70
    19f4:	a81e      	add	r0, sp, #120	; 0x78
    19f6:	f04f 0c01 	mov.w	ip, #1
    19fa:	e6fd      	b.n	17f8 <_vfiprintf_r+0x9ac>
    19fc:	1c7b      	adds	r3, r7, #1
    19fe:	e527      	b.n	1450 <_vfiprintf_r+0x604>
    1a00:	f89d 3037 	ldrb.w	r3, [sp, #55]	; 0x37
    1a04:	f8cd 8014 	str.w	r8, [sp, #20]
    1a08:	9309      	str	r3, [sp, #36]	; 0x24
    1a0a:	9408      	str	r4, [sp, #32]
    1a0c:	9703      	str	r7, [sp, #12]
    1a0e:	4680      	mov	r8, r0
    1a10:	e6a5      	b.n	175e <_vfiprintf_r+0x912>
    1a12:	4607      	mov	r7, r0
    1a14:	4660      	mov	r0, ip
    1a16:	e63e      	b.n	1696 <_vfiprintf_r+0x84a>
    1a18:	9807      	ldr	r0, [sp, #28]
    1a1a:	9902      	ldr	r1, [sp, #8]
    1a1c:	aa0f      	add	r2, sp, #60	; 0x3c
    1a1e:	f7ff f9d9 	bl	dd4 <__sprint_r.part.0>
    1a22:	2800      	cmp	r0, #0
    1a24:	f43f ae72 	beq.w	170c <_vfiprintf_r+0x8c0>
    1a28:	e672      	b.n	1710 <_vfiprintf_r+0x8c4>
    1a2a:	9d08      	ldr	r5, [sp, #32]
    1a2c:	f899 2001 	ldrb.w	r2, [r9, #1]
    1a30:	682b      	ldr	r3, [r5, #0]
    1a32:	ea43 78e3 	orr.w	r8, r3, r3, asr #31
    1a36:	1d2b      	adds	r3, r5, #4
    1a38:	46a1      	mov	r9, r4
    1a3a:	9308      	str	r3, [sp, #32]
    1a3c:	f7ff ba74 	b.w	f28 <_vfiprintf_r+0xdc>
    1a40:	f88d 0037 	strb.w	r0, [sp, #55]	; 0x37
    1a44:	e51b      	b.n	147e <_vfiprintf_r+0x632>
    1a46:	f88d 0037 	strb.w	r0, [sp, #55]	; 0x37
    1a4a:	e5b7      	b.n	15bc <_vfiprintf_r+0x770>
    1a4c:	f88d 0037 	strb.w	r0, [sp, #55]	; 0x37
    1a50:	e52a      	b.n	14a8 <_vfiprintf_r+0x65c>
    1a52:	f88d 0037 	strb.w	r0, [sp, #55]	; 0x37
    1a56:	f7ff bbee 	b.w	1236 <_vfiprintf_r+0x3ea>
    1a5a:	f88d 0037 	strb.w	r0, [sp, #55]	; 0x37
    1a5e:	f7ff bb4e 	b.w	10fe <_vfiprintf_r+0x2b2>
    1a62:	f88d 0037 	strb.w	r0, [sp, #55]	; 0x37
    1a66:	f7ff bbc0 	b.w	11ea <_vfiprintf_r+0x39e>
    1a6a:	bf00      	nop
    1a6c:	00006910 	.word	0x00006910

00001a70 <__sbprintf>:
    1a70:	e92d 41f0 	stmdb	sp!, {r4, r5, r6, r7, r8, lr}
    1a74:	460c      	mov	r4, r1
    1a76:	f5ad 6d8d 	sub.w	sp, sp, #1128	; 0x468
    1a7a:	8989      	ldrh	r1, [r1, #12]
    1a7c:	6e66      	ldr	r6, [r4, #100]	; 0x64
    1a7e:	89e5      	ldrh	r5, [r4, #14]
    1a80:	9619      	str	r6, [sp, #100]	; 0x64
    1a82:	f021 0102 	bic.w	r1, r1, #2
    1a86:	4606      	mov	r6, r0
    1a88:	69e0      	ldr	r0, [r4, #28]
    1a8a:	f8ad 100c 	strh.w	r1, [sp, #12]
    1a8e:	4617      	mov	r7, r2
    1a90:	f44f 6180 	mov.w	r1, #1024	; 0x400
    1a94:	6a62      	ldr	r2, [r4, #36]	; 0x24
    1a96:	f8ad 500e 	strh.w	r5, [sp, #14]
    1a9a:	4698      	mov	r8, r3
    1a9c:	ad1a      	add	r5, sp, #104	; 0x68
    1a9e:	2300      	movs	r3, #0
    1aa0:	9007      	str	r0, [sp, #28]
    1aa2:	a816      	add	r0, sp, #88	; 0x58
    1aa4:	9209      	str	r2, [sp, #36]	; 0x24
    1aa6:	9306      	str	r3, [sp, #24]
    1aa8:	9500      	str	r5, [sp, #0]
    1aaa:	9504      	str	r5, [sp, #16]
    1aac:	9102      	str	r1, [sp, #8]
    1aae:	9105      	str	r1, [sp, #20]
    1ab0:	f7fe fc32 	bl	318 <__retarget_lock_init_recursive>
    1ab4:	4643      	mov	r3, r8
    1ab6:	463a      	mov	r2, r7
    1ab8:	4669      	mov	r1, sp
    1aba:	4630      	mov	r0, r6
    1abc:	f7ff f9c6 	bl	e4c <_vfiprintf_r>
    1ac0:	1e05      	subs	r5, r0, #0
    1ac2:	db07      	blt.n	1ad4 <__sbprintf+0x64>
    1ac4:	4630      	mov	r0, r6
    1ac6:	4669      	mov	r1, sp
    1ac8:	f000 f924 	bl	1d14 <_fflush_r>
    1acc:	2800      	cmp	r0, #0
    1ace:	bf18      	it	ne
    1ad0:	f04f 35ff 	movne.w	r5, #4294967295	; 0xffffffff
    1ad4:	f8bd 300c 	ldrh.w	r3, [sp, #12]
    1ad8:	065b      	lsls	r3, r3, #25
    1ada:	d503      	bpl.n	1ae4 <__sbprintf+0x74>
    1adc:	89a3      	ldrh	r3, [r4, #12]
    1ade:	f043 0340 	orr.w	r3, r3, #64	; 0x40
    1ae2:	81a3      	strh	r3, [r4, #12]
    1ae4:	9816      	ldr	r0, [sp, #88]	; 0x58
    1ae6:	f7fe fc19 	bl	31c <__retarget_lock_close_recursive>
    1aea:	4628      	mov	r0, r5
    1aec:	f50d 6d8d 	add.w	sp, sp, #1128	; 0x468
    1af0:	e8bd 81f0 	ldmia.w	sp!, {r4, r5, r6, r7, r8, pc}

00001af4 <__swsetup_r>:
    1af4:	b538      	push	{r3, r4, r5, lr}
    1af6:	4b31      	ldr	r3, [pc, #196]	; (1bbc <__swsetup_r+0xc8>)
    1af8:	681b      	ldr	r3, [r3, #0]
    1afa:	4605      	mov	r5, r0
    1afc:	460c      	mov	r4, r1
    1afe:	b113      	cbz	r3, 1b06 <__swsetup_r+0x12>
    1b00:	6b9a      	ldr	r2, [r3, #56]	; 0x38
    1b02:	2a00      	cmp	r2, #0
    1b04:	d03a      	beq.n	1b7c <__swsetup_r+0x88>
    1b06:	f9b4 200c 	ldrsh.w	r2, [r4, #12]
    1b0a:	b293      	uxth	r3, r2
    1b0c:	0718      	lsls	r0, r3, #28
    1b0e:	d50c      	bpl.n	1b2a <__swsetup_r+0x36>
    1b10:	6920      	ldr	r0, [r4, #16]
    1b12:	b1a8      	cbz	r0, 1b40 <__swsetup_r+0x4c>
    1b14:	f013 0201 	ands.w	r2, r3, #1
    1b18:	d020      	beq.n	1b5c <__swsetup_r+0x68>
    1b1a:	6963      	ldr	r3, [r4, #20]
    1b1c:	2200      	movs	r2, #0
    1b1e:	425b      	negs	r3, r3
    1b20:	61a3      	str	r3, [r4, #24]
    1b22:	60a2      	str	r2, [r4, #8]
    1b24:	b300      	cbz	r0, 1b68 <__swsetup_r+0x74>
    1b26:	2000      	movs	r0, #0
    1b28:	bd38      	pop	{r3, r4, r5, pc}
    1b2a:	06d9      	lsls	r1, r3, #27
    1b2c:	d53e      	bpl.n	1bac <__swsetup_r+0xb8>
    1b2e:	0758      	lsls	r0, r3, #29
    1b30:	d428      	bmi.n	1b84 <__swsetup_r+0x90>
    1b32:	6920      	ldr	r0, [r4, #16]
    1b34:	f042 0308 	orr.w	r3, r2, #8
    1b38:	81a3      	strh	r3, [r4, #12]
    1b3a:	b29b      	uxth	r3, r3
    1b3c:	2800      	cmp	r0, #0
    1b3e:	d1e9      	bne.n	1b14 <__swsetup_r+0x20>
    1b40:	f403 7220 	and.w	r2, r3, #640	; 0x280
    1b44:	f5b2 7f00 	cmp.w	r2, #512	; 0x200
    1b48:	d0e4      	beq.n	1b14 <__swsetup_r+0x20>
    1b4a:	4628      	mov	r0, r5
    1b4c:	4621      	mov	r1, r4
    1b4e:	f000 fd1f 	bl	2590 <__smakebuf_r>
    1b52:	89a3      	ldrh	r3, [r4, #12]
    1b54:	6920      	ldr	r0, [r4, #16]
    1b56:	f013 0201 	ands.w	r2, r3, #1
    1b5a:	d1de      	bne.n	1b1a <__swsetup_r+0x26>
    1b5c:	0799      	lsls	r1, r3, #30
    1b5e:	bf58      	it	pl
    1b60:	6962      	ldrpl	r2, [r4, #20]
    1b62:	60a2      	str	r2, [r4, #8]
    1b64:	2800      	cmp	r0, #0
    1b66:	d1de      	bne.n	1b26 <__swsetup_r+0x32>
    1b68:	f9b4 300c 	ldrsh.w	r3, [r4, #12]
    1b6c:	061a      	lsls	r2, r3, #24
    1b6e:	d5db      	bpl.n	1b28 <__swsetup_r+0x34>
    1b70:	f043 0340 	orr.w	r3, r3, #64	; 0x40
    1b74:	81a3      	strh	r3, [r4, #12]
    1b76:	f04f 30ff 	mov.w	r0, #4294967295	; 0xffffffff
    1b7a:	bd38      	pop	{r3, r4, r5, pc}
    1b7c:	4618      	mov	r0, r3
    1b7e:	f000 f925 	bl	1dcc <__sinit>
    1b82:	e7c0      	b.n	1b06 <__swsetup_r+0x12>
    1b84:	6b21      	ldr	r1, [r4, #48]	; 0x30
    1b86:	b151      	cbz	r1, 1b9e <__swsetup_r+0xaa>
    1b88:	f104 0340 	add.w	r3, r4, #64	; 0x40
    1b8c:	4299      	cmp	r1, r3
    1b8e:	d004      	beq.n	1b9a <__swsetup_r+0xa6>
    1b90:	4628      	mov	r0, r5
    1b92:	f000 fa25 	bl	1fe0 <_free_r>
    1b96:	f9b4 200c 	ldrsh.w	r2, [r4, #12]
    1b9a:	2300      	movs	r3, #0
    1b9c:	6323      	str	r3, [r4, #48]	; 0x30
    1b9e:	2300      	movs	r3, #0
    1ba0:	6920      	ldr	r0, [r4, #16]
    1ba2:	6063      	str	r3, [r4, #4]
    1ba4:	f022 0224 	bic.w	r2, r2, #36	; 0x24
    1ba8:	6020      	str	r0, [r4, #0]
    1baa:	e7c3      	b.n	1b34 <__swsetup_r+0x40>
    1bac:	f042 0240 	orr.w	r2, r2, #64	; 0x40
    1bb0:	2309      	movs	r3, #9
    1bb2:	602b      	str	r3, [r5, #0]
    1bb4:	f04f 30ff 	mov.w	r0, #4294967295	; 0xffffffff
    1bb8:	81a2      	strh	r2, [r4, #12]
    1bba:	bd38      	pop	{r3, r4, r5, pc}
    1bbc:	20000000 	.word	0x20000000

00001bc0 <__sflush_r>:
    1bc0:	f9b1 300c 	ldrsh.w	r3, [r1, #12]
    1bc4:	b29a      	uxth	r2, r3
    1bc6:	e92d 41f0 	stmdb	sp!, {r4, r5, r6, r7, r8, lr}
    1bca:	460c      	mov	r4, r1
    1bcc:	0711      	lsls	r1, r2, #28
    1bce:	4680      	mov	r8, r0
    1bd0:	d444      	bmi.n	1c5c <__sflush_r+0x9c>
    1bd2:	6862      	ldr	r2, [r4, #4]
    1bd4:	f443 6300 	orr.w	r3, r3, #2048	; 0x800
    1bd8:	2a00      	cmp	r2, #0
    1bda:	81a3      	strh	r3, [r4, #12]
    1bdc:	dd59      	ble.n	1c92 <__sflush_r+0xd2>
    1bde:	6aa5      	ldr	r5, [r4, #40]	; 0x28
    1be0:	2d00      	cmp	r5, #0
    1be2:	d053      	beq.n	1c8c <__sflush_r+0xcc>
    1be4:	2200      	movs	r2, #0
    1be6:	b29b      	uxth	r3, r3
    1be8:	f8d8 6000 	ldr.w	r6, [r8]
    1bec:	69e1      	ldr	r1, [r4, #28]
    1bee:	f8c8 2000 	str.w	r2, [r8]
    1bf2:	f413 5280 	ands.w	r2, r3, #4096	; 0x1000
    1bf6:	f040 8083 	bne.w	1d00 <__sflush_r+0x140>
    1bfa:	2301      	movs	r3, #1
    1bfc:	4640      	mov	r0, r8
    1bfe:	47a8      	blx	r5
    1c00:	1c42      	adds	r2, r0, #1
    1c02:	d04a      	beq.n	1c9a <__sflush_r+0xda>
    1c04:	89a3      	ldrh	r3, [r4, #12]
    1c06:	6aa5      	ldr	r5, [r4, #40]	; 0x28
    1c08:	69e1      	ldr	r1, [r4, #28]
    1c0a:	075b      	lsls	r3, r3, #29
    1c0c:	d505      	bpl.n	1c1a <__sflush_r+0x5a>
    1c0e:	6862      	ldr	r2, [r4, #4]
    1c10:	6b23      	ldr	r3, [r4, #48]	; 0x30
    1c12:	1a80      	subs	r0, r0, r2
    1c14:	b10b      	cbz	r3, 1c1a <__sflush_r+0x5a>
    1c16:	6be3      	ldr	r3, [r4, #60]	; 0x3c
    1c18:	1ac0      	subs	r0, r0, r3
    1c1a:	4602      	mov	r2, r0
    1c1c:	2300      	movs	r3, #0
    1c1e:	4640      	mov	r0, r8
    1c20:	47a8      	blx	r5
    1c22:	1c47      	adds	r7, r0, #1
    1c24:	d045      	beq.n	1cb2 <__sflush_r+0xf2>
    1c26:	f9b4 300c 	ldrsh.w	r3, [r4, #12]
    1c2a:	6922      	ldr	r2, [r4, #16]
    1c2c:	6022      	str	r2, [r4, #0]
    1c2e:	f423 6300 	bic.w	r3, r3, #2048	; 0x800
    1c32:	2200      	movs	r2, #0
    1c34:	81a3      	strh	r3, [r4, #12]
    1c36:	04db      	lsls	r3, r3, #19
    1c38:	6062      	str	r2, [r4, #4]
    1c3a:	d500      	bpl.n	1c3e <__sflush_r+0x7e>
    1c3c:	6520      	str	r0, [r4, #80]	; 0x50
    1c3e:	6b21      	ldr	r1, [r4, #48]	; 0x30
    1c40:	f8c8 6000 	str.w	r6, [r8]
    1c44:	b311      	cbz	r1, 1c8c <__sflush_r+0xcc>
    1c46:	f104 0340 	add.w	r3, r4, #64	; 0x40
    1c4a:	4299      	cmp	r1, r3
    1c4c:	d002      	beq.n	1c54 <__sflush_r+0x94>
    1c4e:	4640      	mov	r0, r8
    1c50:	f000 f9c6 	bl	1fe0 <_free_r>
    1c54:	2000      	movs	r0, #0
    1c56:	6320      	str	r0, [r4, #48]	; 0x30
    1c58:	e8bd 81f0 	ldmia.w	sp!, {r4, r5, r6, r7, r8, pc}
    1c5c:	6926      	ldr	r6, [r4, #16]
    1c5e:	b1ae      	cbz	r6, 1c8c <__sflush_r+0xcc>
    1c60:	6825      	ldr	r5, [r4, #0]
    1c62:	6026      	str	r6, [r4, #0]
    1c64:	0792      	lsls	r2, r2, #30
    1c66:	bf0c      	ite	eq
    1c68:	6963      	ldreq	r3, [r4, #20]
    1c6a:	2300      	movne	r3, #0
    1c6c:	1bad      	subs	r5, r5, r6
    1c6e:	60a3      	str	r3, [r4, #8]
    1c70:	e00a      	b.n	1c88 <__sflush_r+0xc8>
    1c72:	462b      	mov	r3, r5
    1c74:	4632      	mov	r2, r6
    1c76:	6a67      	ldr	r7, [r4, #36]	; 0x24
    1c78:	69e1      	ldr	r1, [r4, #28]
    1c7a:	4640      	mov	r0, r8
    1c7c:	47b8      	blx	r7
    1c7e:	2800      	cmp	r0, #0
    1c80:	eba5 0500 	sub.w	r5, r5, r0
    1c84:	4406      	add	r6, r0
    1c86:	dd2b      	ble.n	1ce0 <__sflush_r+0x120>
    1c88:	2d00      	cmp	r5, #0
    1c8a:	dcf2      	bgt.n	1c72 <__sflush_r+0xb2>
    1c8c:	2000      	movs	r0, #0
    1c8e:	e8bd 81f0 	ldmia.w	sp!, {r4, r5, r6, r7, r8, pc}
    1c92:	6be2      	ldr	r2, [r4, #60]	; 0x3c
    1c94:	2a00      	cmp	r2, #0
    1c96:	dca2      	bgt.n	1bde <__sflush_r+0x1e>
    1c98:	e7f8      	b.n	1c8c <__sflush_r+0xcc>
    1c9a:	f8d8 3000 	ldr.w	r3, [r8]
    1c9e:	2b00      	cmp	r3, #0
    1ca0:	d0b0      	beq.n	1c04 <__sflush_r+0x44>
    1ca2:	2b1d      	cmp	r3, #29
    1ca4:	d001      	beq.n	1caa <__sflush_r+0xea>
    1ca6:	2b16      	cmp	r3, #22
    1ca8:	d12c      	bne.n	1d04 <__sflush_r+0x144>
    1caa:	f8c8 6000 	str.w	r6, [r8]
    1cae:	2000      	movs	r0, #0
    1cb0:	e7ed      	b.n	1c8e <__sflush_r+0xce>
    1cb2:	f8d8 1000 	ldr.w	r1, [r8]
    1cb6:	291d      	cmp	r1, #29
    1cb8:	d81a      	bhi.n	1cf0 <__sflush_r+0x130>
    1cba:	4b15      	ldr	r3, [pc, #84]	; (1d10 <__sflush_r+0x150>)
    1cbc:	f9b4 200c 	ldrsh.w	r2, [r4, #12]
    1cc0:	40cb      	lsrs	r3, r1
    1cc2:	43db      	mvns	r3, r3
    1cc4:	f013 0301 	ands.w	r3, r3, #1
    1cc8:	d114      	bne.n	1cf4 <__sflush_r+0x134>
    1cca:	6925      	ldr	r5, [r4, #16]
    1ccc:	f422 6200 	bic.w	r2, r2, #2048	; 0x800
    1cd0:	e9c4 5300 	strd	r5, r3, [r4]
    1cd4:	04d5      	lsls	r5, r2, #19
    1cd6:	81a2      	strh	r2, [r4, #12]
    1cd8:	d5b1      	bpl.n	1c3e <__sflush_r+0x7e>
    1cda:	2900      	cmp	r1, #0
    1cdc:	d1af      	bne.n	1c3e <__sflush_r+0x7e>
    1cde:	e7ad      	b.n	1c3c <__sflush_r+0x7c>
    1ce0:	89a3      	ldrh	r3, [r4, #12]
    1ce2:	f043 0340 	orr.w	r3, r3, #64	; 0x40
    1ce6:	81a3      	strh	r3, [r4, #12]
    1ce8:	f04f 30ff 	mov.w	r0, #4294967295	; 0xffffffff
    1cec:	e8bd 81f0 	ldmia.w	sp!, {r4, r5, r6, r7, r8, pc}
    1cf0:	f9b4 200c 	ldrsh.w	r2, [r4, #12]
    1cf4:	f042 0240 	orr.w	r2, r2, #64	; 0x40
    1cf8:	81a2      	strh	r2, [r4, #12]
    1cfa:	f04f 30ff 	mov.w	r0, #4294967295	; 0xffffffff
    1cfe:	e7c6      	b.n	1c8e <__sflush_r+0xce>
    1d00:	6d20      	ldr	r0, [r4, #80]	; 0x50
    1d02:	e782      	b.n	1c0a <__sflush_r+0x4a>
    1d04:	89a3      	ldrh	r3, [r4, #12]
    1d06:	f043 0340 	orr.w	r3, r3, #64	; 0x40
    1d0a:	81a3      	strh	r3, [r4, #12]
    1d0c:	e7bf      	b.n	1c8e <__sflush_r+0xce>
    1d0e:	bf00      	nop
    1d10:	20400001 	.word	0x20400001

00001d14 <_fflush_r>:
    1d14:	b538      	push	{r3, r4, r5, lr}
    1d16:	460d      	mov	r5, r1
    1d18:	4604      	mov	r4, r0
    1d1a:	b108      	cbz	r0, 1d20 <_fflush_r+0xc>
    1d1c:	6b83      	ldr	r3, [r0, #56]	; 0x38
    1d1e:	b1a3      	cbz	r3, 1d4a <_fflush_r+0x36>
    1d20:	f9b5 000c 	ldrsh.w	r0, [r5, #12]
    1d24:	b1b8      	cbz	r0, 1d56 <_fflush_r+0x42>
    1d26:	6e6b      	ldr	r3, [r5, #100]	; 0x64
    1d28:	07db      	lsls	r3, r3, #31
    1d2a:	d401      	bmi.n	1d30 <_fflush_r+0x1c>
    1d2c:	0581      	lsls	r1, r0, #22
    1d2e:	d51a      	bpl.n	1d66 <_fflush_r+0x52>
    1d30:	4620      	mov	r0, r4
    1d32:	4629      	mov	r1, r5
    1d34:	f7ff ff44 	bl	1bc0 <__sflush_r>
    1d38:	6e6b      	ldr	r3, [r5, #100]	; 0x64
    1d3a:	07da      	lsls	r2, r3, #31
    1d3c:	4604      	mov	r4, r0
    1d3e:	d402      	bmi.n	1d46 <_fflush_r+0x32>
    1d40:	89ab      	ldrh	r3, [r5, #12]
    1d42:	059b      	lsls	r3, r3, #22
    1d44:	d50a      	bpl.n	1d5c <_fflush_r+0x48>
    1d46:	4620      	mov	r0, r4
    1d48:	bd38      	pop	{r3, r4, r5, pc}
    1d4a:	f000 f83f 	bl	1dcc <__sinit>
    1d4e:	f9b5 000c 	ldrsh.w	r0, [r5, #12]
    1d52:	2800      	cmp	r0, #0
    1d54:	d1e7      	bne.n	1d26 <_fflush_r+0x12>
    1d56:	4604      	mov	r4, r0
    1d58:	4620      	mov	r0, r4
    1d5a:	bd38      	pop	{r3, r4, r5, pc}
    1d5c:	6da8      	ldr	r0, [r5, #88]	; 0x58
    1d5e:	f7fe fae1 	bl	324 <__retarget_lock_release_recursive>
    1d62:	4620      	mov	r0, r4
    1d64:	bd38      	pop	{r3, r4, r5, pc}
    1d66:	6da8      	ldr	r0, [r5, #88]	; 0x58
    1d68:	f7fe fada 	bl	320 <__retarget_lock_acquire_recursive>
    1d6c:	e7e0      	b.n	1d30 <_fflush_r+0x1c>
    1d6e:	bf00      	nop

00001d70 <std>:
    1d70:	b510      	push	{r4, lr}
    1d72:	2300      	movs	r3, #0
    1d74:	4604      	mov	r4, r0
    1d76:	8181      	strh	r1, [r0, #12]
    1d78:	81c2      	strh	r2, [r0, #14]
    1d7a:	e9c0 3300 	strd	r3, r3, [r0]
    1d7e:	6083      	str	r3, [r0, #8]
    1d80:	6643      	str	r3, [r0, #100]	; 0x64
    1d82:	e9c0 3304 	strd	r3, r3, [r0, #16]
    1d86:	6183      	str	r3, [r0, #24]
    1d88:	4619      	mov	r1, r3
    1d8a:	2208      	movs	r2, #8
    1d8c:	305c      	adds	r0, #92	; 0x5c
    1d8e:	f7fe fa79 	bl	284 <memset>
    1d92:	4807      	ldr	r0, [pc, #28]	; (1db0 <std+0x40>)
    1d94:	4907      	ldr	r1, [pc, #28]	; (1db4 <std+0x44>)
    1d96:	4a08      	ldr	r2, [pc, #32]	; (1db8 <std+0x48>)
    1d98:	4b08      	ldr	r3, [pc, #32]	; (1dbc <std+0x4c>)
    1d9a:	62e3      	str	r3, [r4, #44]	; 0x2c
    1d9c:	e9c4 4007 	strd	r4, r0, [r4, #28]
    1da0:	e9c4 1209 	strd	r1, r2, [r4, #36]	; 0x24
    1da4:	f104 0058 	add.w	r0, r4, #88	; 0x58
    1da8:	e8bd 4010 	ldmia.w	sp!, {r4, lr}
    1dac:	f7fe bab4 	b.w	318 <__retarget_lock_init_recursive>
    1db0:	000031d5 	.word	0x000031d5
    1db4:	000031f9 	.word	0x000031f9
    1db8:	00003235 	.word	0x00003235
    1dbc:	00003255 	.word	0x00003255

00001dc0 <_cleanup_r>:
    1dc0:	4901      	ldr	r1, [pc, #4]	; (1dc8 <_cleanup_r+0x8>)
    1dc2:	f000 bb7f 	b.w	24c4 <_fwalk_reent>
    1dc6:	bf00      	nop
    1dc8:	000034c9 	.word	0x000034c9

00001dcc <__sinit>:
    1dcc:	b510      	push	{r4, lr}
    1dce:	4604      	mov	r4, r0
    1dd0:	4812      	ldr	r0, [pc, #72]	; (1e1c <__sinit+0x50>)
    1dd2:	f7fe faa5 	bl	320 <__retarget_lock_acquire_recursive>
    1dd6:	6ba2      	ldr	r2, [r4, #56]	; 0x38
    1dd8:	b9d2      	cbnz	r2, 1e10 <__sinit+0x44>
    1dda:	f504 733b 	add.w	r3, r4, #748	; 0x2ec
    1dde:	4810      	ldr	r0, [pc, #64]	; (1e20 <__sinit+0x54>)
    1de0:	f8c4 32e8 	str.w	r3, [r4, #744]	; 0x2e8
    1de4:	2103      	movs	r1, #3
    1de6:	f8c4 22e0 	str.w	r2, [r4, #736]	; 0x2e0
    1dea:	63e0      	str	r0, [r4, #60]	; 0x3c
    1dec:	f8c4 12e4 	str.w	r1, [r4, #740]	; 0x2e4
    1df0:	6860      	ldr	r0, [r4, #4]
    1df2:	2104      	movs	r1, #4
    1df4:	f7ff ffbc 	bl	1d70 <std>
    1df8:	2201      	movs	r2, #1
    1dfa:	2109      	movs	r1, #9
    1dfc:	68a0      	ldr	r0, [r4, #8]
    1dfe:	f7ff ffb7 	bl	1d70 <std>
    1e02:	2202      	movs	r2, #2
    1e04:	2112      	movs	r1, #18
    1e06:	68e0      	ldr	r0, [r4, #12]
    1e08:	f7ff ffb2 	bl	1d70 <std>
    1e0c:	2301      	movs	r3, #1
    1e0e:	63a3      	str	r3, [r4, #56]	; 0x38
    1e10:	4802      	ldr	r0, [pc, #8]	; (1e1c <__sinit+0x50>)
    1e12:	e8bd 4010 	ldmia.w	sp!, {r4, lr}
    1e16:	f7fe ba85 	b.w	324 <__retarget_lock_release_recursive>
    1e1a:	bf00      	nop
    1e1c:	20001404 	.word	0x20001404
    1e20:	00001dc1 	.word	0x00001dc1

00001e24 <__sfp_lock_acquire>:
    1e24:	4801      	ldr	r0, [pc, #4]	; (1e2c <__sfp_lock_acquire+0x8>)
    1e26:	f7fe ba7b 	b.w	320 <__retarget_lock_acquire_recursive>
    1e2a:	bf00      	nop
    1e2c:	20001418 	.word	0x20001418

00001e30 <__sfp_lock_release>:
    1e30:	4801      	ldr	r0, [pc, #4]	; (1e38 <__sfp_lock_release+0x8>)
    1e32:	f7fe ba77 	b.w	324 <__retarget_lock_release_recursive>
    1e36:	bf00      	nop
    1e38:	20001418 	.word	0x20001418

00001e3c <__fputwc>:
    1e3c:	e92d 47f0 	stmdb	sp!, {r4, r5, r6, r7, r8, r9, sl, lr}
    1e40:	b082      	sub	sp, #8
    1e42:	4681      	mov	r9, r0
    1e44:	4688      	mov	r8, r1
    1e46:	4614      	mov	r4, r2
    1e48:	f000 fb66 	bl	2518 <__locale_mb_cur_max>
    1e4c:	2801      	cmp	r0, #1
    1e4e:	d103      	bne.n	1e58 <__fputwc+0x1c>
    1e50:	f108 33ff 	add.w	r3, r8, #4294967295	; 0xffffffff
    1e54:	2bfe      	cmp	r3, #254	; 0xfe
    1e56:	d933      	bls.n	1ec0 <__fputwc+0x84>
    1e58:	4642      	mov	r2, r8
    1e5a:	f104 035c 	add.w	r3, r4, #92	; 0x5c
    1e5e:	a901      	add	r1, sp, #4
    1e60:	4648      	mov	r0, r9
    1e62:	f001 fad3 	bl	340c <_wcrtomb_r>
    1e66:	1c42      	adds	r2, r0, #1
    1e68:	4606      	mov	r6, r0
    1e6a:	d02f      	beq.n	1ecc <__fputwc+0x90>
    1e6c:	b320      	cbz	r0, 1eb8 <__fputwc+0x7c>
    1e6e:	f89d c004 	ldrb.w	ip, [sp, #4]
    1e72:	2500      	movs	r5, #0
    1e74:	f10d 0a04 	add.w	sl, sp, #4
    1e78:	e009      	b.n	1e8e <__fputwc+0x52>
    1e7a:	6823      	ldr	r3, [r4, #0]
    1e7c:	1c5a      	adds	r2, r3, #1
    1e7e:	6022      	str	r2, [r4, #0]
    1e80:	f883 c000 	strb.w	ip, [r3]
    1e84:	3501      	adds	r5, #1
    1e86:	42b5      	cmp	r5, r6
    1e88:	d216      	bcs.n	1eb8 <__fputwc+0x7c>
    1e8a:	f815 c00a 	ldrb.w	ip, [r5, sl]
    1e8e:	68a3      	ldr	r3, [r4, #8]
    1e90:	3b01      	subs	r3, #1
    1e92:	2b00      	cmp	r3, #0
    1e94:	60a3      	str	r3, [r4, #8]
    1e96:	daf0      	bge.n	1e7a <__fputwc+0x3e>
    1e98:	69a7      	ldr	r7, [r4, #24]
    1e9a:	42bb      	cmp	r3, r7
    1e9c:	4661      	mov	r1, ip
    1e9e:	4622      	mov	r2, r4
    1ea0:	4648      	mov	r0, r9
    1ea2:	db02      	blt.n	1eaa <__fputwc+0x6e>
    1ea4:	f1bc 0f0a 	cmp.w	ip, #10
    1ea8:	d1e7      	bne.n	1e7a <__fputwc+0x3e>
    1eaa:	f001 fa57 	bl	335c <__swbuf_r>
    1eae:	1c43      	adds	r3, r0, #1
    1eb0:	d1e8      	bne.n	1e84 <__fputwc+0x48>
    1eb2:	b002      	add	sp, #8
    1eb4:	e8bd 87f0 	ldmia.w	sp!, {r4, r5, r6, r7, r8, r9, sl, pc}
    1eb8:	4640      	mov	r0, r8
    1eba:	b002      	add	sp, #8
    1ebc:	e8bd 87f0 	ldmia.w	sp!, {r4, r5, r6, r7, r8, r9, sl, pc}
    1ec0:	fa5f fc88 	uxtb.w	ip, r8
    1ec4:	4606      	mov	r6, r0
    1ec6:	f88d c004 	strb.w	ip, [sp, #4]
    1eca:	e7d2      	b.n	1e72 <__fputwc+0x36>
    1ecc:	89a3      	ldrh	r3, [r4, #12]
    1ece:	f043 0340 	orr.w	r3, r3, #64	; 0x40
    1ed2:	81a3      	strh	r3, [r4, #12]
    1ed4:	b002      	add	sp, #8
    1ed6:	e8bd 87f0 	ldmia.w	sp!, {r4, r5, r6, r7, r8, r9, sl, pc}
    1eda:	bf00      	nop

00001edc <_fputwc_r>:
    1edc:	b530      	push	{r4, r5, lr}
    1ede:	4605      	mov	r5, r0
    1ee0:	6e50      	ldr	r0, [r2, #100]	; 0x64
    1ee2:	f9b2 300c 	ldrsh.w	r3, [r2, #12]
    1ee6:	07c0      	lsls	r0, r0, #31
    1ee8:	4614      	mov	r4, r2
    1eea:	b083      	sub	sp, #12
    1eec:	b29a      	uxth	r2, r3
    1eee:	d401      	bmi.n	1ef4 <_fputwc_r+0x18>
    1ef0:	0590      	lsls	r0, r2, #22
    1ef2:	d51c      	bpl.n	1f2e <_fputwc_r+0x52>
    1ef4:	0490      	lsls	r0, r2, #18
    1ef6:	d406      	bmi.n	1f06 <_fputwc_r+0x2a>
    1ef8:	6e62      	ldr	r2, [r4, #100]	; 0x64
    1efa:	f443 5300 	orr.w	r3, r3, #8192	; 0x2000
    1efe:	f442 5200 	orr.w	r2, r2, #8192	; 0x2000
    1f02:	81a3      	strh	r3, [r4, #12]
    1f04:	6662      	str	r2, [r4, #100]	; 0x64
    1f06:	4628      	mov	r0, r5
    1f08:	4622      	mov	r2, r4
    1f0a:	f7ff ff97 	bl	1e3c <__fputwc>
    1f0e:	6e63      	ldr	r3, [r4, #100]	; 0x64
    1f10:	07da      	lsls	r2, r3, #31
    1f12:	4605      	mov	r5, r0
    1f14:	d402      	bmi.n	1f1c <_fputwc_r+0x40>
    1f16:	89a3      	ldrh	r3, [r4, #12]
    1f18:	059b      	lsls	r3, r3, #22
    1f1a:	d502      	bpl.n	1f22 <_fputwc_r+0x46>
    1f1c:	4628      	mov	r0, r5
    1f1e:	b003      	add	sp, #12
    1f20:	bd30      	pop	{r4, r5, pc}
    1f22:	6da0      	ldr	r0, [r4, #88]	; 0x58
    1f24:	f7fe f9fe 	bl	324 <__retarget_lock_release_recursive>
    1f28:	4628      	mov	r0, r5
    1f2a:	b003      	add	sp, #12
    1f2c:	bd30      	pop	{r4, r5, pc}
    1f2e:	6da0      	ldr	r0, [r4, #88]	; 0x58
    1f30:	9101      	str	r1, [sp, #4]
    1f32:	f7fe f9f5 	bl	320 <__retarget_lock_acquire_recursive>
    1f36:	f9b4 300c 	ldrsh.w	r3, [r4, #12]
    1f3a:	9901      	ldr	r1, [sp, #4]
    1f3c:	b29a      	uxth	r2, r3
    1f3e:	e7d9      	b.n	1ef4 <_fputwc_r+0x18>

00001f40 <_malloc_trim_r>:
    1f40:	b5f8      	push	{r3, r4, r5, r6, r7, lr}
    1f42:	4f24      	ldr	r7, [pc, #144]	; (1fd4 <_malloc_trim_r+0x94>)
    1f44:	460c      	mov	r4, r1
    1f46:	4606      	mov	r6, r0
    1f48:	f000 ff78 	bl	2e3c <__malloc_lock>
    1f4c:	68bb      	ldr	r3, [r7, #8]
    1f4e:	685d      	ldr	r5, [r3, #4]
    1f50:	f5c4 617e 	rsb	r1, r4, #4064	; 0xfe0
    1f54:	310f      	adds	r1, #15
    1f56:	f025 0503 	bic.w	r5, r5, #3
    1f5a:	4429      	add	r1, r5
    1f5c:	f421 617f 	bic.w	r1, r1, #4080	; 0xff0
    1f60:	f021 010f 	bic.w	r1, r1, #15
    1f64:	f5a1 5480 	sub.w	r4, r1, #4096	; 0x1000
    1f68:	f5b4 5f80 	cmp.w	r4, #4096	; 0x1000
    1f6c:	db07      	blt.n	1f7e <_malloc_trim_r+0x3e>
    1f6e:	2100      	movs	r1, #0
    1f70:	4630      	mov	r0, r6
    1f72:	f001 f91d 	bl	31b0 <_sbrk_r>
    1f76:	68bb      	ldr	r3, [r7, #8]
    1f78:	442b      	add	r3, r5
    1f7a:	4298      	cmp	r0, r3
    1f7c:	d004      	beq.n	1f88 <_malloc_trim_r+0x48>
    1f7e:	4630      	mov	r0, r6
    1f80:	f000 ff62 	bl	2e48 <__malloc_unlock>
    1f84:	2000      	movs	r0, #0
    1f86:	bdf8      	pop	{r3, r4, r5, r6, r7, pc}
    1f88:	4261      	negs	r1, r4
    1f8a:	4630      	mov	r0, r6
    1f8c:	f001 f910 	bl	31b0 <_sbrk_r>
    1f90:	3001      	adds	r0, #1
    1f92:	d00d      	beq.n	1fb0 <_malloc_trim_r+0x70>
    1f94:	4b10      	ldr	r3, [pc, #64]	; (1fd8 <_malloc_trim_r+0x98>)
    1f96:	68ba      	ldr	r2, [r7, #8]
    1f98:	6819      	ldr	r1, [r3, #0]
    1f9a:	1b2d      	subs	r5, r5, r4
    1f9c:	f045 0501 	orr.w	r5, r5, #1
    1fa0:	4630      	mov	r0, r6
    1fa2:	1b09      	subs	r1, r1, r4
    1fa4:	6055      	str	r5, [r2, #4]
    1fa6:	6019      	str	r1, [r3, #0]
    1fa8:	f000 ff4e 	bl	2e48 <__malloc_unlock>
    1fac:	2001      	movs	r0, #1
    1fae:	bdf8      	pop	{r3, r4, r5, r6, r7, pc}
    1fb0:	2100      	movs	r1, #0
    1fb2:	4630      	mov	r0, r6
    1fb4:	f001 f8fc 	bl	31b0 <_sbrk_r>
    1fb8:	68ba      	ldr	r2, [r7, #8]
    1fba:	1a83      	subs	r3, r0, r2
    1fbc:	2b0f      	cmp	r3, #15
    1fbe:	ddde      	ble.n	1f7e <_malloc_trim_r+0x3e>
    1fc0:	4c06      	ldr	r4, [pc, #24]	; (1fdc <_malloc_trim_r+0x9c>)
    1fc2:	4905      	ldr	r1, [pc, #20]	; (1fd8 <_malloc_trim_r+0x98>)
    1fc4:	6824      	ldr	r4, [r4, #0]
    1fc6:	f043 0301 	orr.w	r3, r3, #1
    1fca:	1b00      	subs	r0, r0, r4
    1fcc:	6053      	str	r3, [r2, #4]
    1fce:	6008      	str	r0, [r1, #0]
    1fd0:	e7d5      	b.n	1f7e <_malloc_trim_r+0x3e>
    1fd2:	bf00      	nop
    1fd4:	2000059c 	.word	0x2000059c
    1fd8:	200012d0 	.word	0x200012d0
    1fdc:	200009a4 	.word	0x200009a4

00001fe0 <_free_r>:
    1fe0:	2900      	cmp	r1, #0
    1fe2:	d053      	beq.n	208c <_free_r+0xac>
    1fe4:	b5f8      	push	{r3, r4, r5, r6, r7, lr}
    1fe6:	460c      	mov	r4, r1
    1fe8:	4606      	mov	r6, r0
    1fea:	f000 ff27 	bl	2e3c <__malloc_lock>
    1fee:	f854 cc04 	ldr.w	ip, [r4, #-4]
    1ff2:	4f71      	ldr	r7, [pc, #452]	; (21b8 <_free_r+0x1d8>)
    1ff4:	f02c 0101 	bic.w	r1, ip, #1
    1ff8:	f1a4 0508 	sub.w	r5, r4, #8
    1ffc:	186b      	adds	r3, r5, r1
    1ffe:	68b8      	ldr	r0, [r7, #8]
    2000:	685a      	ldr	r2, [r3, #4]
    2002:	4298      	cmp	r0, r3
    2004:	f022 0203 	bic.w	r2, r2, #3
    2008:	d053      	beq.n	20b2 <_free_r+0xd2>
    200a:	f01c 0f01 	tst.w	ip, #1
    200e:	605a      	str	r2, [r3, #4]
    2010:	eb03 0002 	add.w	r0, r3, r2
    2014:	d13b      	bne.n	208e <_free_r+0xae>
    2016:	f854 cc08 	ldr.w	ip, [r4, #-8]
    201a:	6840      	ldr	r0, [r0, #4]
    201c:	eba5 050c 	sub.w	r5, r5, ip
    2020:	f107 0e08 	add.w	lr, r7, #8
    2024:	68ac      	ldr	r4, [r5, #8]
    2026:	4574      	cmp	r4, lr
    2028:	4461      	add	r1, ip
    202a:	f000 0001 	and.w	r0, r0, #1
    202e:	d075      	beq.n	211c <_free_r+0x13c>
    2030:	f8d5 c00c 	ldr.w	ip, [r5, #12]
    2034:	f8c4 c00c 	str.w	ip, [r4, #12]
    2038:	f8cc 4008 	str.w	r4, [ip, #8]
    203c:	b360      	cbz	r0, 2098 <_free_r+0xb8>
    203e:	f041 0301 	orr.w	r3, r1, #1
    2042:	606b      	str	r3, [r5, #4]
    2044:	5069      	str	r1, [r5, r1]
    2046:	f5b1 7f00 	cmp.w	r1, #512	; 0x200
    204a:	d350      	bcc.n	20ee <_free_r+0x10e>
    204c:	0a4b      	lsrs	r3, r1, #9
    204e:	2b04      	cmp	r3, #4
    2050:	d870      	bhi.n	2134 <_free_r+0x154>
    2052:	098b      	lsrs	r3, r1, #6
    2054:	f103 0439 	add.w	r4, r3, #57	; 0x39
    2058:	00e4      	lsls	r4, r4, #3
    205a:	f103 0238 	add.w	r2, r3, #56	; 0x38
    205e:	1938      	adds	r0, r7, r4
    2060:	593b      	ldr	r3, [r7, r4]
    2062:	3808      	subs	r0, #8
    2064:	4298      	cmp	r0, r3
    2066:	d078      	beq.n	215a <_free_r+0x17a>
    2068:	685a      	ldr	r2, [r3, #4]
    206a:	f022 0203 	bic.w	r2, r2, #3
    206e:	428a      	cmp	r2, r1
    2070:	d971      	bls.n	2156 <_free_r+0x176>
    2072:	689b      	ldr	r3, [r3, #8]
    2074:	4298      	cmp	r0, r3
    2076:	d1f7      	bne.n	2068 <_free_r+0x88>
    2078:	68c3      	ldr	r3, [r0, #12]
    207a:	e9c5 0302 	strd	r0, r3, [r5, #8]
    207e:	609d      	str	r5, [r3, #8]
    2080:	60c5      	str	r5, [r0, #12]
    2082:	4630      	mov	r0, r6
    2084:	e8bd 40f8 	ldmia.w	sp!, {r3, r4, r5, r6, r7, lr}
    2088:	f000 bede 	b.w	2e48 <__malloc_unlock>
    208c:	4770      	bx	lr
    208e:	6840      	ldr	r0, [r0, #4]
    2090:	f000 0001 	and.w	r0, r0, #1
    2094:	2800      	cmp	r0, #0
    2096:	d1d2      	bne.n	203e <_free_r+0x5e>
    2098:	6898      	ldr	r0, [r3, #8]
    209a:	4c48      	ldr	r4, [pc, #288]	; (21bc <_free_r+0x1dc>)
    209c:	4411      	add	r1, r2
    209e:	42a0      	cmp	r0, r4
    20a0:	f041 0201 	orr.w	r2, r1, #1
    20a4:	d062      	beq.n	216c <_free_r+0x18c>
    20a6:	68db      	ldr	r3, [r3, #12]
    20a8:	60c3      	str	r3, [r0, #12]
    20aa:	6098      	str	r0, [r3, #8]
    20ac:	606a      	str	r2, [r5, #4]
    20ae:	5069      	str	r1, [r5, r1]
    20b0:	e7c9      	b.n	2046 <_free_r+0x66>
    20b2:	f01c 0f01 	tst.w	ip, #1
    20b6:	440a      	add	r2, r1
    20b8:	d107      	bne.n	20ca <_free_r+0xea>
    20ba:	f854 3c08 	ldr.w	r3, [r4, #-8]
    20be:	1aed      	subs	r5, r5, r3
    20c0:	441a      	add	r2, r3
    20c2:	e9d5 1302 	ldrd	r1, r3, [r5, #8]
    20c6:	60cb      	str	r3, [r1, #12]
    20c8:	6099      	str	r1, [r3, #8]
    20ca:	4b3d      	ldr	r3, [pc, #244]	; (21c0 <_free_r+0x1e0>)
    20cc:	681b      	ldr	r3, [r3, #0]
    20ce:	f042 0101 	orr.w	r1, r2, #1
    20d2:	4293      	cmp	r3, r2
    20d4:	6069      	str	r1, [r5, #4]
    20d6:	60bd      	str	r5, [r7, #8]
    20d8:	d804      	bhi.n	20e4 <_free_r+0x104>
    20da:	4b3a      	ldr	r3, [pc, #232]	; (21c4 <_free_r+0x1e4>)
    20dc:	4630      	mov	r0, r6
    20de:	6819      	ldr	r1, [r3, #0]
    20e0:	f7ff ff2e 	bl	1f40 <_malloc_trim_r>
    20e4:	4630      	mov	r0, r6
    20e6:	e8bd 40f8 	ldmia.w	sp!, {r3, r4, r5, r6, r7, lr}
    20ea:	f000 bead 	b.w	2e48 <__malloc_unlock>
    20ee:	08c9      	lsrs	r1, r1, #3
    20f0:	6878      	ldr	r0, [r7, #4]
    20f2:	1c4a      	adds	r2, r1, #1
    20f4:	2301      	movs	r3, #1
    20f6:	1089      	asrs	r1, r1, #2
    20f8:	408b      	lsls	r3, r1
    20fa:	4303      	orrs	r3, r0
    20fc:	eb07 01c2 	add.w	r1, r7, r2, lsl #3
    2100:	f857 0032 	ldr.w	r0, [r7, r2, lsl #3]
    2104:	607b      	str	r3, [r7, #4]
    2106:	3908      	subs	r1, #8
    2108:	e9c5 0102 	strd	r0, r1, [r5, #8]
    210c:	f847 5032 	str.w	r5, [r7, r2, lsl #3]
    2110:	60c5      	str	r5, [r0, #12]
    2112:	4630      	mov	r0, r6
    2114:	e8bd 40f8 	ldmia.w	sp!, {r3, r4, r5, r6, r7, lr}
    2118:	f000 be96 	b.w	2e48 <__malloc_unlock>
    211c:	2800      	cmp	r0, #0
    211e:	d145      	bne.n	21ac <_free_r+0x1cc>
    2120:	440a      	add	r2, r1
    2122:	e9d3 1302 	ldrd	r1, r3, [r3, #8]
    2126:	f042 0001 	orr.w	r0, r2, #1
    212a:	60cb      	str	r3, [r1, #12]
    212c:	6099      	str	r1, [r3, #8]
    212e:	6068      	str	r0, [r5, #4]
    2130:	50aa      	str	r2, [r5, r2]
    2132:	e7d7      	b.n	20e4 <_free_r+0x104>
    2134:	2b14      	cmp	r3, #20
    2136:	d908      	bls.n	214a <_free_r+0x16a>
    2138:	2b54      	cmp	r3, #84	; 0x54
    213a:	d81e      	bhi.n	217a <_free_r+0x19a>
    213c:	0b0b      	lsrs	r3, r1, #12
    213e:	f103 046f 	add.w	r4, r3, #111	; 0x6f
    2142:	00e4      	lsls	r4, r4, #3
    2144:	f103 026e 	add.w	r2, r3, #110	; 0x6e
    2148:	e789      	b.n	205e <_free_r+0x7e>
    214a:	f103 045c 	add.w	r4, r3, #92	; 0x5c
    214e:	00e4      	lsls	r4, r4, #3
    2150:	f103 025b 	add.w	r2, r3, #91	; 0x5b
    2154:	e783      	b.n	205e <_free_r+0x7e>
    2156:	4618      	mov	r0, r3
    2158:	e78e      	b.n	2078 <_free_r+0x98>
    215a:	1093      	asrs	r3, r2, #2
    215c:	6879      	ldr	r1, [r7, #4]
    215e:	2201      	movs	r2, #1
    2160:	fa02 f303 	lsl.w	r3, r2, r3
    2164:	430b      	orrs	r3, r1
    2166:	607b      	str	r3, [r7, #4]
    2168:	4603      	mov	r3, r0
    216a:	e786      	b.n	207a <_free_r+0x9a>
    216c:	e9c7 5504 	strd	r5, r5, [r7, #16]
    2170:	e9c5 0002 	strd	r0, r0, [r5, #8]
    2174:	606a      	str	r2, [r5, #4]
    2176:	5069      	str	r1, [r5, r1]
    2178:	e7b4      	b.n	20e4 <_free_r+0x104>
    217a:	f5b3 7faa 	cmp.w	r3, #340	; 0x154
    217e:	d806      	bhi.n	218e <_free_r+0x1ae>
    2180:	0bcb      	lsrs	r3, r1, #15
    2182:	f103 0478 	add.w	r4, r3, #120	; 0x78
    2186:	00e4      	lsls	r4, r4, #3
    2188:	f103 0277 	add.w	r2, r3, #119	; 0x77
    218c:	e767      	b.n	205e <_free_r+0x7e>
    218e:	f240 5254 	movw	r2, #1364	; 0x554
    2192:	4293      	cmp	r3, r2
    2194:	d806      	bhi.n	21a4 <_free_r+0x1c4>
    2196:	0c8b      	lsrs	r3, r1, #18
    2198:	f103 047d 	add.w	r4, r3, #125	; 0x7d
    219c:	00e4      	lsls	r4, r4, #3
    219e:	f103 027c 	add.w	r2, r3, #124	; 0x7c
    21a2:	e75c      	b.n	205e <_free_r+0x7e>
    21a4:	f44f 747e 	mov.w	r4, #1016	; 0x3f8
    21a8:	227e      	movs	r2, #126	; 0x7e
    21aa:	e758      	b.n	205e <_free_r+0x7e>
    21ac:	f041 0201 	orr.w	r2, r1, #1
    21b0:	606a      	str	r2, [r5, #4]
    21b2:	6019      	str	r1, [r3, #0]
    21b4:	e796      	b.n	20e4 <_free_r+0x104>
    21b6:	bf00      	nop
    21b8:	2000059c 	.word	0x2000059c
    21bc:	200005a4 	.word	0x200005a4
    21c0:	200009a8 	.word	0x200009a8
    21c4:	20001300 	.word	0x20001300

000021c8 <__sfvwrite_r>:
    21c8:	6893      	ldr	r3, [r2, #8]
    21ca:	2b00      	cmp	r3, #0
    21cc:	f000 80e4 	beq.w	2398 <__sfvwrite_r+0x1d0>
    21d0:	e92d 4ff0 	stmdb	sp!, {r4, r5, r6, r7, r8, r9, sl, fp, lr}
    21d4:	f9b1 300c 	ldrsh.w	r3, [r1, #12]
    21d8:	b29b      	uxth	r3, r3
    21da:	460c      	mov	r4, r1
    21dc:	0719      	lsls	r1, r3, #28
    21de:	b083      	sub	sp, #12
    21e0:	4682      	mov	sl, r0
    21e2:	4690      	mov	r8, r2
    21e4:	d535      	bpl.n	2252 <__sfvwrite_r+0x8a>
    21e6:	6922      	ldr	r2, [r4, #16]
    21e8:	b39a      	cbz	r2, 2252 <__sfvwrite_r+0x8a>
    21ea:	f013 0202 	ands.w	r2, r3, #2
    21ee:	f8d8 6000 	ldr.w	r6, [r8]
    21f2:	d03d      	beq.n	2270 <__sfvwrite_r+0xa8>
    21f4:	2700      	movs	r7, #0
    21f6:	f8d4 b024 	ldr.w	fp, [r4, #36]	; 0x24
    21fa:	f8d4 c01c 	ldr.w	ip, [r4, #28]
    21fe:	f8df 92c0 	ldr.w	r9, [pc, #704]	; 24c0 <__sfvwrite_r+0x2f8>
    2202:	463d      	mov	r5, r7
    2204:	454d      	cmp	r5, r9
    2206:	462b      	mov	r3, r5
    2208:	463a      	mov	r2, r7
    220a:	bf28      	it	cs
    220c:	464b      	movcs	r3, r9
    220e:	4661      	mov	r1, ip
    2210:	4650      	mov	r0, sl
    2212:	b1d5      	cbz	r5, 224a <__sfvwrite_r+0x82>
    2214:	47d8      	blx	fp
    2216:	2800      	cmp	r0, #0
    2218:	f340 80c6 	ble.w	23a8 <__sfvwrite_r+0x1e0>
    221c:	f8d8 3008 	ldr.w	r3, [r8, #8]
    2220:	1a1b      	subs	r3, r3, r0
    2222:	4407      	add	r7, r0
    2224:	1a2d      	subs	r5, r5, r0
    2226:	f8c8 3008 	str.w	r3, [r8, #8]
    222a:	2b00      	cmp	r3, #0
    222c:	f000 80b0 	beq.w	2390 <__sfvwrite_r+0x1c8>
    2230:	f8d4 c01c 	ldr.w	ip, [r4, #28]
    2234:	f8d4 b024 	ldr.w	fp, [r4, #36]	; 0x24
    2238:	454d      	cmp	r5, r9
    223a:	462b      	mov	r3, r5
    223c:	463a      	mov	r2, r7
    223e:	bf28      	it	cs
    2240:	464b      	movcs	r3, r9
    2242:	4661      	mov	r1, ip
    2244:	4650      	mov	r0, sl
    2246:	2d00      	cmp	r5, #0
    2248:	d1e4      	bne.n	2214 <__sfvwrite_r+0x4c>
    224a:	e9d6 7500 	ldrd	r7, r5, [r6]
    224e:	3608      	adds	r6, #8
    2250:	e7d8      	b.n	2204 <__sfvwrite_r+0x3c>
    2252:	4621      	mov	r1, r4
    2254:	4650      	mov	r0, sl
    2256:	f7ff fc4d 	bl	1af4 <__swsetup_r>
    225a:	2800      	cmp	r0, #0
    225c:	f040 812a 	bne.w	24b4 <__sfvwrite_r+0x2ec>
    2260:	f9b4 300c 	ldrsh.w	r3, [r4, #12]
    2264:	f8d8 6000 	ldr.w	r6, [r8]
    2268:	b29b      	uxth	r3, r3
    226a:	f013 0202 	ands.w	r2, r3, #2
    226e:	d1c1      	bne.n	21f4 <__sfvwrite_r+0x2c>
    2270:	f013 0901 	ands.w	r9, r3, #1
    2274:	d15d      	bne.n	2332 <__sfvwrite_r+0x16a>
    2276:	68a7      	ldr	r7, [r4, #8]
    2278:	6820      	ldr	r0, [r4, #0]
    227a:	464d      	mov	r5, r9
    227c:	2d00      	cmp	r5, #0
    227e:	d054      	beq.n	232a <__sfvwrite_r+0x162>
    2280:	059a      	lsls	r2, r3, #22
    2282:	f140 809b 	bpl.w	23bc <__sfvwrite_r+0x1f4>
    2286:	42af      	cmp	r7, r5
    2288:	46bb      	mov	fp, r7
    228a:	f200 80d8 	bhi.w	243e <__sfvwrite_r+0x276>
    228e:	f413 6f90 	tst.w	r3, #1152	; 0x480
    2292:	d02f      	beq.n	22f4 <__sfvwrite_r+0x12c>
    2294:	e9d4 1704 	ldrd	r1, r7, [r4, #16]
    2298:	eb07 0747 	add.w	r7, r7, r7, lsl #1
    229c:	eba0 0b01 	sub.w	fp, r0, r1
    22a0:	eb07 77d7 	add.w	r7, r7, r7, lsr #31
    22a4:	1c68      	adds	r0, r5, #1
    22a6:	107f      	asrs	r7, r7, #1
    22a8:	4458      	add	r0, fp
    22aa:	42b8      	cmp	r0, r7
    22ac:	463a      	mov	r2, r7
    22ae:	bf84      	itt	hi
    22b0:	4607      	movhi	r7, r0
    22b2:	463a      	movhi	r2, r7
    22b4:	055b      	lsls	r3, r3, #21
    22b6:	f140 80d3 	bpl.w	2460 <__sfvwrite_r+0x298>
    22ba:	4611      	mov	r1, r2
    22bc:	4650      	mov	r0, sl
    22be:	f000 f9b1 	bl	2624 <_malloc_r>
    22c2:	2800      	cmp	r0, #0
    22c4:	f000 80f0 	beq.w	24a8 <__sfvwrite_r+0x2e0>
    22c8:	465a      	mov	r2, fp
    22ca:	6921      	ldr	r1, [r4, #16]
    22cc:	9001      	str	r0, [sp, #4]
    22ce:	f000 fcb7 	bl	2c40 <memcpy>
    22d2:	89a2      	ldrh	r2, [r4, #12]
    22d4:	9b01      	ldr	r3, [sp, #4]
    22d6:	f422 6290 	bic.w	r2, r2, #1152	; 0x480
    22da:	f042 0280 	orr.w	r2, r2, #128	; 0x80
    22de:	81a2      	strh	r2, [r4, #12]
    22e0:	eba7 020b 	sub.w	r2, r7, fp
    22e4:	eb03 000b 	add.w	r0, r3, fp
    22e8:	6167      	str	r7, [r4, #20]
    22ea:	6123      	str	r3, [r4, #16]
    22ec:	6020      	str	r0, [r4, #0]
    22ee:	60a2      	str	r2, [r4, #8]
    22f0:	462f      	mov	r7, r5
    22f2:	46ab      	mov	fp, r5
    22f4:	465a      	mov	r2, fp
    22f6:	4649      	mov	r1, r9
    22f8:	f000 fd3c 	bl	2d74 <memmove>
    22fc:	68a2      	ldr	r2, [r4, #8]
    22fe:	6823      	ldr	r3, [r4, #0]
    2300:	1bd2      	subs	r2, r2, r7
    2302:	445b      	add	r3, fp
    2304:	462f      	mov	r7, r5
    2306:	60a2      	str	r2, [r4, #8]
    2308:	6023      	str	r3, [r4, #0]
    230a:	2500      	movs	r5, #0
    230c:	f8d8 3008 	ldr.w	r3, [r8, #8]
    2310:	1bdb      	subs	r3, r3, r7
    2312:	44b9      	add	r9, r7
    2314:	f8c8 3008 	str.w	r3, [r8, #8]
    2318:	2b00      	cmp	r3, #0
    231a:	d039      	beq.n	2390 <__sfvwrite_r+0x1c8>
    231c:	f9b4 300c 	ldrsh.w	r3, [r4, #12]
    2320:	68a7      	ldr	r7, [r4, #8]
    2322:	6820      	ldr	r0, [r4, #0]
    2324:	b29b      	uxth	r3, r3
    2326:	2d00      	cmp	r5, #0
    2328:	d1aa      	bne.n	2280 <__sfvwrite_r+0xb8>
    232a:	e9d6 9500 	ldrd	r9, r5, [r6]
    232e:	3608      	adds	r6, #8
    2330:	e7a4      	b.n	227c <__sfvwrite_r+0xb4>
    2332:	4633      	mov	r3, r6
    2334:	4691      	mov	r9, r2
    2336:	4610      	mov	r0, r2
    2338:	4617      	mov	r7, r2
    233a:	464e      	mov	r6, r9
    233c:	469b      	mov	fp, r3
    233e:	2f00      	cmp	r7, #0
    2340:	d06b      	beq.n	241a <__sfvwrite_r+0x252>
    2342:	2800      	cmp	r0, #0
    2344:	d071      	beq.n	242a <__sfvwrite_r+0x262>
    2346:	e9d4 1204 	ldrd	r1, r2, [r4, #16]
    234a:	6820      	ldr	r0, [r4, #0]
    234c:	45b9      	cmp	r9, r7
    234e:	464b      	mov	r3, r9
    2350:	bf28      	it	cs
    2352:	463b      	movcs	r3, r7
    2354:	4288      	cmp	r0, r1
    2356:	d903      	bls.n	2360 <__sfvwrite_r+0x198>
    2358:	68a5      	ldr	r5, [r4, #8]
    235a:	4415      	add	r5, r2
    235c:	42ab      	cmp	r3, r5
    235e:	dc71      	bgt.n	2444 <__sfvwrite_r+0x27c>
    2360:	429a      	cmp	r2, r3
    2362:	f300 8093 	bgt.w	248c <__sfvwrite_r+0x2c4>
    2366:	4613      	mov	r3, r2
    2368:	6a65      	ldr	r5, [r4, #36]	; 0x24
    236a:	69e1      	ldr	r1, [r4, #28]
    236c:	4632      	mov	r2, r6
    236e:	4650      	mov	r0, sl
    2370:	47a8      	blx	r5
    2372:	1e05      	subs	r5, r0, #0
    2374:	dd18      	ble.n	23a8 <__sfvwrite_r+0x1e0>
    2376:	ebb9 0905 	subs.w	r9, r9, r5
    237a:	d00f      	beq.n	239c <__sfvwrite_r+0x1d4>
    237c:	2001      	movs	r0, #1
    237e:	f8d8 3008 	ldr.w	r3, [r8, #8]
    2382:	1b5b      	subs	r3, r3, r5
    2384:	442e      	add	r6, r5
    2386:	1b7f      	subs	r7, r7, r5
    2388:	f8c8 3008 	str.w	r3, [r8, #8]
    238c:	2b00      	cmp	r3, #0
    238e:	d1d6      	bne.n	233e <__sfvwrite_r+0x176>
    2390:	2000      	movs	r0, #0
    2392:	b003      	add	sp, #12
    2394:	e8bd 8ff0 	ldmia.w	sp!, {r4, r5, r6, r7, r8, r9, sl, fp, pc}
    2398:	2000      	movs	r0, #0
    239a:	4770      	bx	lr
    239c:	4621      	mov	r1, r4
    239e:	4650      	mov	r0, sl
    23a0:	f7ff fcb8 	bl	1d14 <_fflush_r>
    23a4:	2800      	cmp	r0, #0
    23a6:	d0ea      	beq.n	237e <__sfvwrite_r+0x1b6>
    23a8:	f9b4 300c 	ldrsh.w	r3, [r4, #12]
    23ac:	f043 0340 	orr.w	r3, r3, #64	; 0x40
    23b0:	f04f 30ff 	mov.w	r0, #4294967295	; 0xffffffff
    23b4:	81a3      	strh	r3, [r4, #12]
    23b6:	b003      	add	sp, #12
    23b8:	e8bd 8ff0 	ldmia.w	sp!, {r4, r5, r6, r7, r8, r9, sl, fp, pc}
    23bc:	6923      	ldr	r3, [r4, #16]
    23be:	4283      	cmp	r3, r0
    23c0:	d315      	bcc.n	23ee <__sfvwrite_r+0x226>
    23c2:	6961      	ldr	r1, [r4, #20]
    23c4:	42a9      	cmp	r1, r5
    23c6:	d812      	bhi.n	23ee <__sfvwrite_r+0x226>
    23c8:	4b3c      	ldr	r3, [pc, #240]	; (24bc <__sfvwrite_r+0x2f4>)
    23ca:	6a67      	ldr	r7, [r4, #36]	; 0x24
    23cc:	429d      	cmp	r5, r3
    23ce:	bf94      	ite	ls
    23d0:	462b      	movls	r3, r5
    23d2:	f06f 4300 	mvnhi.w	r3, #2147483648	; 0x80000000
    23d6:	464a      	mov	r2, r9
    23d8:	fb93 f3f1 	sdiv	r3, r3, r1
    23dc:	4650      	mov	r0, sl
    23de:	fb01 f303 	mul.w	r3, r1, r3
    23e2:	69e1      	ldr	r1, [r4, #28]
    23e4:	47b8      	blx	r7
    23e6:	1e07      	subs	r7, r0, #0
    23e8:	ddde      	ble.n	23a8 <__sfvwrite_r+0x1e0>
    23ea:	1bed      	subs	r5, r5, r7
    23ec:	e78e      	b.n	230c <__sfvwrite_r+0x144>
    23ee:	42af      	cmp	r7, r5
    23f0:	bf28      	it	cs
    23f2:	462f      	movcs	r7, r5
    23f4:	463a      	mov	r2, r7
    23f6:	4649      	mov	r1, r9
    23f8:	f000 fcbc 	bl	2d74 <memmove>
    23fc:	68a3      	ldr	r3, [r4, #8]
    23fe:	6822      	ldr	r2, [r4, #0]
    2400:	1bdb      	subs	r3, r3, r7
    2402:	443a      	add	r2, r7
    2404:	60a3      	str	r3, [r4, #8]
    2406:	6022      	str	r2, [r4, #0]
    2408:	2b00      	cmp	r3, #0
    240a:	d1ee      	bne.n	23ea <__sfvwrite_r+0x222>
    240c:	4621      	mov	r1, r4
    240e:	4650      	mov	r0, sl
    2410:	f7ff fc80 	bl	1d14 <_fflush_r>
    2414:	2800      	cmp	r0, #0
    2416:	d0e8      	beq.n	23ea <__sfvwrite_r+0x222>
    2418:	e7c6      	b.n	23a8 <__sfvwrite_r+0x1e0>
    241a:	f10b 0308 	add.w	r3, fp, #8
    241e:	e953 6702 	ldrd	r6, r7, [r3, #-8]
    2422:	469b      	mov	fp, r3
    2424:	3308      	adds	r3, #8
    2426:	2f00      	cmp	r7, #0
    2428:	d0f9      	beq.n	241e <__sfvwrite_r+0x256>
    242a:	463a      	mov	r2, r7
    242c:	210a      	movs	r1, #10
    242e:	4630      	mov	r0, r6
    2430:	f000 fbb6 	bl	2ba0 <memchr>
    2434:	b338      	cbz	r0, 2486 <__sfvwrite_r+0x2be>
    2436:	3001      	adds	r0, #1
    2438:	eba0 0906 	sub.w	r9, r0, r6
    243c:	e783      	b.n	2346 <__sfvwrite_r+0x17e>
    243e:	462f      	mov	r7, r5
    2440:	46ab      	mov	fp, r5
    2442:	e757      	b.n	22f4 <__sfvwrite_r+0x12c>
    2444:	4631      	mov	r1, r6
    2446:	462a      	mov	r2, r5
    2448:	f000 fc94 	bl	2d74 <memmove>
    244c:	6823      	ldr	r3, [r4, #0]
    244e:	442b      	add	r3, r5
    2450:	6023      	str	r3, [r4, #0]
    2452:	4621      	mov	r1, r4
    2454:	4650      	mov	r0, sl
    2456:	f7ff fc5d 	bl	1d14 <_fflush_r>
    245a:	2800      	cmp	r0, #0
    245c:	d08b      	beq.n	2376 <__sfvwrite_r+0x1ae>
    245e:	e7a3      	b.n	23a8 <__sfvwrite_r+0x1e0>
    2460:	4650      	mov	r0, sl
    2462:	f000 fcf7 	bl	2e54 <_realloc_r>
    2466:	4603      	mov	r3, r0
    2468:	2800      	cmp	r0, #0
    246a:	f47f af39 	bne.w	22e0 <__sfvwrite_r+0x118>
    246e:	6921      	ldr	r1, [r4, #16]
    2470:	4650      	mov	r0, sl
    2472:	f7ff fdb5 	bl	1fe0 <_free_r>
    2476:	f9b4 300c 	ldrsh.w	r3, [r4, #12]
    247a:	220c      	movs	r2, #12
    247c:	f023 0380 	bic.w	r3, r3, #128	; 0x80
    2480:	f8ca 2000 	str.w	r2, [sl]
    2484:	e792      	b.n	23ac <__sfvwrite_r+0x1e4>
    2486:	f107 0901 	add.w	r9, r7, #1
    248a:	e75c      	b.n	2346 <__sfvwrite_r+0x17e>
    248c:	461a      	mov	r2, r3
    248e:	4631      	mov	r1, r6
    2490:	9301      	str	r3, [sp, #4]
    2492:	f000 fc6f 	bl	2d74 <memmove>
    2496:	9b01      	ldr	r3, [sp, #4]
    2498:	68a1      	ldr	r1, [r4, #8]
    249a:	6822      	ldr	r2, [r4, #0]
    249c:	1ac9      	subs	r1, r1, r3
    249e:	441a      	add	r2, r3
    24a0:	60a1      	str	r1, [r4, #8]
    24a2:	6022      	str	r2, [r4, #0]
    24a4:	461d      	mov	r5, r3
    24a6:	e766      	b.n	2376 <__sfvwrite_r+0x1ae>
    24a8:	230c      	movs	r3, #12
    24aa:	f8ca 3000 	str.w	r3, [sl]
    24ae:	f9b4 300c 	ldrsh.w	r3, [r4, #12]
    24b2:	e77b      	b.n	23ac <__sfvwrite_r+0x1e4>
    24b4:	f04f 30ff 	mov.w	r0, #4294967295	; 0xffffffff
    24b8:	e76b      	b.n	2392 <__sfvwrite_r+0x1ca>
    24ba:	bf00      	nop
    24bc:	7ffffffe 	.word	0x7ffffffe
    24c0:	7ffffc00 	.word	0x7ffffc00

000024c4 <_fwalk_reent>:
    24c4:	e92d 43f8 	stmdb	sp!, {r3, r4, r5, r6, r7, r8, r9, lr}
    24c8:	f510 7738 	adds.w	r7, r0, #736	; 0x2e0
    24cc:	d01f      	beq.n	250e <_fwalk_reent+0x4a>
    24ce:	4688      	mov	r8, r1
    24d0:	4606      	mov	r6, r0
    24d2:	f04f 0900 	mov.w	r9, #0
    24d6:	e9d7 5401 	ldrd	r5, r4, [r7, #4]
    24da:	3d01      	subs	r5, #1
    24dc:	d411      	bmi.n	2502 <_fwalk_reent+0x3e>
    24de:	89a3      	ldrh	r3, [r4, #12]
    24e0:	2b01      	cmp	r3, #1
    24e2:	f105 35ff 	add.w	r5, r5, #4294967295	; 0xffffffff
    24e6:	4621      	mov	r1, r4
    24e8:	4630      	mov	r0, r6
    24ea:	d906      	bls.n	24fa <_fwalk_reent+0x36>
    24ec:	f9b4 300e 	ldrsh.w	r3, [r4, #14]
    24f0:	3301      	adds	r3, #1
    24f2:	d002      	beq.n	24fa <_fwalk_reent+0x36>
    24f4:	47c0      	blx	r8
    24f6:	ea49 0900 	orr.w	r9, r9, r0
    24fa:	1c6b      	adds	r3, r5, #1
    24fc:	f104 0468 	add.w	r4, r4, #104	; 0x68
    2500:	d1ed      	bne.n	24de <_fwalk_reent+0x1a>
    2502:	683f      	ldr	r7, [r7, #0]
    2504:	2f00      	cmp	r7, #0
    2506:	d1e6      	bne.n	24d6 <_fwalk_reent+0x12>
    2508:	4648      	mov	r0, r9
    250a:	e8bd 83f8 	ldmia.w	sp!, {r3, r4, r5, r6, r7, r8, r9, pc}
    250e:	46b9      	mov	r9, r7
    2510:	4648      	mov	r0, r9
    2512:	e8bd 83f8 	ldmia.w	sp!, {r3, r4, r5, r6, r7, r8, r9, pc}
    2516:	bf00      	nop

00002518 <__locale_mb_cur_max>:
    2518:	4b04      	ldr	r3, [pc, #16]	; (252c <__locale_mb_cur_max+0x14>)
    251a:	4a05      	ldr	r2, [pc, #20]	; (2530 <__locale_mb_cur_max+0x18>)
    251c:	681b      	ldr	r3, [r3, #0]
    251e:	6b5b      	ldr	r3, [r3, #52]	; 0x34
    2520:	2b00      	cmp	r3, #0
    2522:	bf08      	it	eq
    2524:	4613      	moveq	r3, r2
    2526:	f893 0128 	ldrb.w	r0, [r3, #296]	; 0x128
    252a:	4770      	bx	lr
    252c:	20000000 	.word	0x20000000
    2530:	20000430 	.word	0x20000430

00002534 <__swhatbuf_r>:
    2534:	b570      	push	{r4, r5, r6, lr}
    2536:	460c      	mov	r4, r1
    2538:	f9b1 100e 	ldrsh.w	r1, [r1, #14]
    253c:	2900      	cmp	r1, #0
    253e:	b096      	sub	sp, #88	; 0x58
    2540:	4615      	mov	r5, r2
    2542:	461e      	mov	r6, r3
    2544:	da0f      	bge.n	2566 <__swhatbuf_r+0x32>
    2546:	89a2      	ldrh	r2, [r4, #12]
    2548:	2300      	movs	r3, #0
    254a:	f012 0080 	ands.w	r0, r2, #128	; 0x80
    254e:	6033      	str	r3, [r6, #0]
    2550:	d104      	bne.n	255c <__swhatbuf_r+0x28>
    2552:	f44f 6380 	mov.w	r3, #1024	; 0x400
    2556:	602b      	str	r3, [r5, #0]
    2558:	b016      	add	sp, #88	; 0x58
    255a:	bd70      	pop	{r4, r5, r6, pc}
    255c:	2240      	movs	r2, #64	; 0x40
    255e:	4618      	mov	r0, r3
    2560:	602a      	str	r2, [r5, #0]
    2562:	b016      	add	sp, #88	; 0x58
    2564:	bd70      	pop	{r4, r5, r6, pc}
    2566:	466a      	mov	r2, sp
    2568:	f001 f816 	bl	3598 <_fstat_r>
    256c:	2800      	cmp	r0, #0
    256e:	dbea      	blt.n	2546 <__swhatbuf_r+0x12>
    2570:	9b01      	ldr	r3, [sp, #4]
    2572:	f403 4370 	and.w	r3, r3, #61440	; 0xf000
    2576:	f5a3 5300 	sub.w	r3, r3, #8192	; 0x2000
    257a:	fab3 f383 	clz	r3, r3
    257e:	095b      	lsrs	r3, r3, #5
    2580:	f44f 6280 	mov.w	r2, #1024	; 0x400
    2584:	f44f 6000 	mov.w	r0, #2048	; 0x800
    2588:	6033      	str	r3, [r6, #0]
    258a:	602a      	str	r2, [r5, #0]
    258c:	b016      	add	sp, #88	; 0x58
    258e:	bd70      	pop	{r4, r5, r6, pc}

00002590 <__smakebuf_r>:
    2590:	898a      	ldrh	r2, [r1, #12]
    2592:	0792      	lsls	r2, r2, #30
    2594:	460b      	mov	r3, r1
    2596:	d506      	bpl.n	25a6 <__smakebuf_r+0x16>
    2598:	f101 0243 	add.w	r2, r1, #67	; 0x43
    259c:	2101      	movs	r1, #1
    259e:	601a      	str	r2, [r3, #0]
    25a0:	e9c3 2104 	strd	r2, r1, [r3, #16]
    25a4:	4770      	bx	lr
    25a6:	b570      	push	{r4, r5, r6, lr}
    25a8:	b082      	sub	sp, #8
    25aa:	ab01      	add	r3, sp, #4
    25ac:	466a      	mov	r2, sp
    25ae:	460c      	mov	r4, r1
    25b0:	4605      	mov	r5, r0
    25b2:	f7ff ffbf 	bl	2534 <__swhatbuf_r>
    25b6:	9900      	ldr	r1, [sp, #0]
    25b8:	4606      	mov	r6, r0
    25ba:	4628      	mov	r0, r5
    25bc:	f000 f832 	bl	2624 <_malloc_r>
    25c0:	f9b4 300c 	ldrsh.w	r3, [r4, #12]
    25c4:	b1d8      	cbz	r0, 25fe <__smakebuf_r+0x6e>
    25c6:	4916      	ldr	r1, [pc, #88]	; (2620 <__smakebuf_r+0x90>)
    25c8:	63e9      	str	r1, [r5, #60]	; 0x3c
    25ca:	9a01      	ldr	r2, [sp, #4]
    25cc:	9900      	ldr	r1, [sp, #0]
    25ce:	6020      	str	r0, [r4, #0]
    25d0:	f043 0380 	orr.w	r3, r3, #128	; 0x80
    25d4:	81a3      	strh	r3, [r4, #12]
    25d6:	e9c4 0104 	strd	r0, r1, [r4, #16]
    25da:	b91a      	cbnz	r2, 25e4 <__smakebuf_r+0x54>
    25dc:	4333      	orrs	r3, r6
    25de:	81a3      	strh	r3, [r4, #12]
    25e0:	b002      	add	sp, #8
    25e2:	bd70      	pop	{r4, r5, r6, pc}
    25e4:	4628      	mov	r0, r5
    25e6:	f9b4 100e 	ldrsh.w	r1, [r4, #14]
    25ea:	f000 ffe9 	bl	35c0 <_isatty_r>
    25ee:	b1a0      	cbz	r0, 261a <__smakebuf_r+0x8a>
    25f0:	89a3      	ldrh	r3, [r4, #12]
    25f2:	f023 0303 	bic.w	r3, r3, #3
    25f6:	f043 0301 	orr.w	r3, r3, #1
    25fa:	b21b      	sxth	r3, r3
    25fc:	e7ee      	b.n	25dc <__smakebuf_r+0x4c>
    25fe:	059a      	lsls	r2, r3, #22
    2600:	d4ee      	bmi.n	25e0 <__smakebuf_r+0x50>
    2602:	f023 0303 	bic.w	r3, r3, #3
    2606:	f104 0243 	add.w	r2, r4, #67	; 0x43
    260a:	f043 0302 	orr.w	r3, r3, #2
    260e:	2101      	movs	r1, #1
    2610:	81a3      	strh	r3, [r4, #12]
    2612:	6022      	str	r2, [r4, #0]
    2614:	e9c4 2104 	strd	r2, r1, [r4, #16]
    2618:	e7e2      	b.n	25e0 <__smakebuf_r+0x50>
    261a:	f9b4 300c 	ldrsh.w	r3, [r4, #12]
    261e:	e7dd      	b.n	25dc <__smakebuf_r+0x4c>
    2620:	00001dc1 	.word	0x00001dc1

00002624 <_malloc_r>:
    2624:	e92d 4ff0 	stmdb	sp!, {r4, r5, r6, r7, r8, r9, sl, fp, lr}
    2628:	f101 050b 	add.w	r5, r1, #11
    262c:	2d16      	cmp	r5, #22
    262e:	b083      	sub	sp, #12
    2630:	4606      	mov	r6, r0
    2632:	d823      	bhi.n	267c <_malloc_r+0x58>
    2634:	2910      	cmp	r1, #16
    2636:	f200 80b9 	bhi.w	27ac <_malloc_r+0x188>
    263a:	f000 fbff 	bl	2e3c <__malloc_lock>
    263e:	2510      	movs	r5, #16
    2640:	2318      	movs	r3, #24
    2642:	2002      	movs	r0, #2
    2644:	4fc5      	ldr	r7, [pc, #788]	; (295c <_malloc_r+0x338>)
    2646:	443b      	add	r3, r7
    2648:	f1a3 0208 	sub.w	r2, r3, #8
    264c:	685c      	ldr	r4, [r3, #4]
    264e:	4294      	cmp	r4, r2
    2650:	f000 8166 	beq.w	2920 <_malloc_r+0x2fc>
    2654:	6863      	ldr	r3, [r4, #4]
    2656:	f023 0303 	bic.w	r3, r3, #3
    265a:	4423      	add	r3, r4
    265c:	e9d4 5102 	ldrd	r5, r1, [r4, #8]
    2660:	685a      	ldr	r2, [r3, #4]
    2662:	60e9      	str	r1, [r5, #12]
    2664:	f042 0201 	orr.w	r2, r2, #1
    2668:	608d      	str	r5, [r1, #8]
    266a:	4630      	mov	r0, r6
    266c:	605a      	str	r2, [r3, #4]
    266e:	f000 fbeb 	bl	2e48 <__malloc_unlock>
    2672:	3408      	adds	r4, #8
    2674:	4620      	mov	r0, r4
    2676:	b003      	add	sp, #12
    2678:	e8bd 8ff0 	ldmia.w	sp!, {r4, r5, r6, r7, r8, r9, sl, fp, pc}
    267c:	f035 0507 	bics.w	r5, r5, #7
    2680:	f100 8094 	bmi.w	27ac <_malloc_r+0x188>
    2684:	42a9      	cmp	r1, r5
    2686:	f200 8091 	bhi.w	27ac <_malloc_r+0x188>
    268a:	f000 fbd7 	bl	2e3c <__malloc_lock>
    268e:	f5b5 7ffc 	cmp.w	r5, #504	; 0x1f8
    2692:	f0c0 8183 	bcc.w	299c <_malloc_r+0x378>
    2696:	0a6b      	lsrs	r3, r5, #9
    2698:	f000 808f 	beq.w	27ba <_malloc_r+0x196>
    269c:	2b04      	cmp	r3, #4
    269e:	f200 8146 	bhi.w	292e <_malloc_r+0x30a>
    26a2:	09ab      	lsrs	r3, r5, #6
    26a4:	f103 0039 	add.w	r0, r3, #57	; 0x39
    26a8:	f103 0c38 	add.w	ip, r3, #56	; 0x38
    26ac:	00c3      	lsls	r3, r0, #3
    26ae:	4fab      	ldr	r7, [pc, #684]	; (295c <_malloc_r+0x338>)
    26b0:	443b      	add	r3, r7
    26b2:	f1a3 0108 	sub.w	r1, r3, #8
    26b6:	685c      	ldr	r4, [r3, #4]
    26b8:	42a1      	cmp	r1, r4
    26ba:	d106      	bne.n	26ca <_malloc_r+0xa6>
    26bc:	e00c      	b.n	26d8 <_malloc_r+0xb4>
    26be:	2a00      	cmp	r2, #0
    26c0:	f280 811d 	bge.w	28fe <_malloc_r+0x2da>
    26c4:	68e4      	ldr	r4, [r4, #12]
    26c6:	42a1      	cmp	r1, r4
    26c8:	d006      	beq.n	26d8 <_malloc_r+0xb4>
    26ca:	6863      	ldr	r3, [r4, #4]
    26cc:	f023 0303 	bic.w	r3, r3, #3
    26d0:	1b5a      	subs	r2, r3, r5
    26d2:	2a0f      	cmp	r2, #15
    26d4:	ddf3      	ble.n	26be <_malloc_r+0x9a>
    26d6:	4660      	mov	r0, ip
    26d8:	693c      	ldr	r4, [r7, #16]
    26da:	f8df c294 	ldr.w	ip, [pc, #660]	; 2970 <_malloc_r+0x34c>
    26de:	4564      	cmp	r4, ip
    26e0:	d071      	beq.n	27c6 <_malloc_r+0x1a2>
    26e2:	6863      	ldr	r3, [r4, #4]
    26e4:	f023 0303 	bic.w	r3, r3, #3
    26e8:	1b5a      	subs	r2, r3, r5
    26ea:	2a0f      	cmp	r2, #15
    26ec:	f300 8144 	bgt.w	2978 <_malloc_r+0x354>
    26f0:	2a00      	cmp	r2, #0
    26f2:	e9c7 cc04 	strd	ip, ip, [r7, #16]
    26f6:	f280 8126 	bge.w	2946 <_malloc_r+0x322>
    26fa:	f5b3 7f00 	cmp.w	r3, #512	; 0x200
    26fe:	f080 8169 	bcs.w	29d4 <_malloc_r+0x3b0>
    2702:	08db      	lsrs	r3, r3, #3
    2704:	1c59      	adds	r1, r3, #1
    2706:	687a      	ldr	r2, [r7, #4]
    2708:	f857 8031 	ldr.w	r8, [r7, r1, lsl #3]
    270c:	f8c4 8008 	str.w	r8, [r4, #8]
    2710:	f04f 0e01 	mov.w	lr, #1
    2714:	109b      	asrs	r3, r3, #2
    2716:	fa0e f303 	lsl.w	r3, lr, r3
    271a:	eb07 0ec1 	add.w	lr, r7, r1, lsl #3
    271e:	4313      	orrs	r3, r2
    2720:	f1ae 0208 	sub.w	r2, lr, #8
    2724:	60e2      	str	r2, [r4, #12]
    2726:	607b      	str	r3, [r7, #4]
    2728:	f847 4031 	str.w	r4, [r7, r1, lsl #3]
    272c:	f8c8 400c 	str.w	r4, [r8, #12]
    2730:	1082      	asrs	r2, r0, #2
    2732:	2401      	movs	r4, #1
    2734:	4094      	lsls	r4, r2
    2736:	429c      	cmp	r4, r3
    2738:	d84b      	bhi.n	27d2 <_malloc_r+0x1ae>
    273a:	421c      	tst	r4, r3
    273c:	d106      	bne.n	274c <_malloc_r+0x128>
    273e:	f020 0003 	bic.w	r0, r0, #3
    2742:	0064      	lsls	r4, r4, #1
    2744:	421c      	tst	r4, r3
    2746:	f100 0004 	add.w	r0, r0, #4
    274a:	d0fa      	beq.n	2742 <_malloc_r+0x11e>
    274c:	eb07 09c0 	add.w	r9, r7, r0, lsl #3
    2750:	46ce      	mov	lr, r9
    2752:	4680      	mov	r8, r0
    2754:	f8de 300c 	ldr.w	r3, [lr, #12]
    2758:	459e      	cmp	lr, r3
    275a:	d107      	bne.n	276c <_malloc_r+0x148>
    275c:	e122      	b.n	29a4 <_malloc_r+0x380>
    275e:	2a00      	cmp	r2, #0
    2760:	f280 8129 	bge.w	29b6 <_malloc_r+0x392>
    2764:	68db      	ldr	r3, [r3, #12]
    2766:	459e      	cmp	lr, r3
    2768:	f000 811c 	beq.w	29a4 <_malloc_r+0x380>
    276c:	6859      	ldr	r1, [r3, #4]
    276e:	f021 0103 	bic.w	r1, r1, #3
    2772:	1b4a      	subs	r2, r1, r5
    2774:	2a0f      	cmp	r2, #15
    2776:	ddf2      	ble.n	275e <_malloc_r+0x13a>
    2778:	e9d3 8e02 	ldrd	r8, lr, [r3, #8]
    277c:	195c      	adds	r4, r3, r5
    277e:	f045 0501 	orr.w	r5, r5, #1
    2782:	605d      	str	r5, [r3, #4]
    2784:	f042 0501 	orr.w	r5, r2, #1
    2788:	f8c8 e00c 	str.w	lr, [r8, #12]
    278c:	4630      	mov	r0, r6
    278e:	f8ce 8008 	str.w	r8, [lr, #8]
    2792:	e9c7 4404 	strd	r4, r4, [r7, #16]
    2796:	e9c4 cc02 	strd	ip, ip, [r4, #8]
    279a:	6065      	str	r5, [r4, #4]
    279c:	505a      	str	r2, [r3, r1]
    279e:	9301      	str	r3, [sp, #4]
    27a0:	f000 fb52 	bl	2e48 <__malloc_unlock>
    27a4:	9b01      	ldr	r3, [sp, #4]
    27a6:	f103 0408 	add.w	r4, r3, #8
    27aa:	e763      	b.n	2674 <_malloc_r+0x50>
    27ac:	2400      	movs	r4, #0
    27ae:	230c      	movs	r3, #12
    27b0:	4620      	mov	r0, r4
    27b2:	6033      	str	r3, [r6, #0]
    27b4:	b003      	add	sp, #12
    27b6:	e8bd 8ff0 	ldmia.w	sp!, {r4, r5, r6, r7, r8, r9, sl, fp, pc}
    27ba:	f44f 7300 	mov.w	r3, #512	; 0x200
    27be:	2040      	movs	r0, #64	; 0x40
    27c0:	f04f 0c3f 	mov.w	ip, #63	; 0x3f
    27c4:	e773      	b.n	26ae <_malloc_r+0x8a>
    27c6:	687b      	ldr	r3, [r7, #4]
    27c8:	1082      	asrs	r2, r0, #2
    27ca:	2401      	movs	r4, #1
    27cc:	4094      	lsls	r4, r2
    27ce:	429c      	cmp	r4, r3
    27d0:	d9b3      	bls.n	273a <_malloc_r+0x116>
    27d2:	68bc      	ldr	r4, [r7, #8]
    27d4:	6863      	ldr	r3, [r4, #4]
    27d6:	f023 0903 	bic.w	r9, r3, #3
    27da:	45a9      	cmp	r9, r5
    27dc:	d303      	bcc.n	27e6 <_malloc_r+0x1c2>
    27de:	eba9 0305 	sub.w	r3, r9, r5
    27e2:	2b0f      	cmp	r3, #15
    27e4:	dc7b      	bgt.n	28de <_malloc_r+0x2ba>
    27e6:	4b5e      	ldr	r3, [pc, #376]	; (2960 <_malloc_r+0x33c>)
    27e8:	f8df a188 	ldr.w	sl, [pc, #392]	; 2974 <_malloc_r+0x350>
    27ec:	681a      	ldr	r2, [r3, #0]
    27ee:	f8da 3000 	ldr.w	r3, [sl]
    27f2:	3301      	adds	r3, #1
    27f4:	eb05 0802 	add.w	r8, r5, r2
    27f8:	f000 8148 	beq.w	2a8c <_malloc_r+0x468>
    27fc:	f508 5880 	add.w	r8, r8, #4096	; 0x1000
    2800:	f108 080f 	add.w	r8, r8, #15
    2804:	f428 687f 	bic.w	r8, r8, #4080	; 0xff0
    2808:	f028 080f 	bic.w	r8, r8, #15
    280c:	4641      	mov	r1, r8
    280e:	4630      	mov	r0, r6
    2810:	f000 fcce 	bl	31b0 <_sbrk_r>
    2814:	f1b0 3fff 	cmp.w	r0, #4294967295	; 0xffffffff
    2818:	4683      	mov	fp, r0
    281a:	f000 8104 	beq.w	2a26 <_malloc_r+0x402>
    281e:	eb04 0009 	add.w	r0, r4, r9
    2822:	4558      	cmp	r0, fp
    2824:	f200 80fd 	bhi.w	2a22 <_malloc_r+0x3fe>
    2828:	4a4e      	ldr	r2, [pc, #312]	; (2964 <_malloc_r+0x340>)
    282a:	6813      	ldr	r3, [r2, #0]
    282c:	4443      	add	r3, r8
    282e:	6013      	str	r3, [r2, #0]
    2830:	f000 814d 	beq.w	2ace <_malloc_r+0x4aa>
    2834:	f8da 1000 	ldr.w	r1, [sl]
    2838:	3101      	adds	r1, #1
    283a:	bf1b      	ittet	ne
    283c:	ebab 0000 	subne.w	r0, fp, r0
    2840:	181b      	addne	r3, r3, r0
    2842:	f8ca b000 	streq.w	fp, [sl]
    2846:	6013      	strne	r3, [r2, #0]
    2848:	f01b 0307 	ands.w	r3, fp, #7
    284c:	f000 8134 	beq.w	2ab8 <_malloc_r+0x494>
    2850:	f1c3 0108 	rsb	r1, r3, #8
    2854:	f5c3 5380 	rsb	r3, r3, #4096	; 0x1000
    2858:	448b      	add	fp, r1
    285a:	3308      	adds	r3, #8
    285c:	44d8      	add	r8, fp
    285e:	f3c8 080b 	ubfx	r8, r8, #0, #12
    2862:	eba3 0808 	sub.w	r8, r3, r8
    2866:	4641      	mov	r1, r8
    2868:	4630      	mov	r0, r6
    286a:	9201      	str	r2, [sp, #4]
    286c:	f000 fca0 	bl	31b0 <_sbrk_r>
    2870:	1c43      	adds	r3, r0, #1
    2872:	9a01      	ldr	r2, [sp, #4]
    2874:	f000 8146 	beq.w	2b04 <_malloc_r+0x4e0>
    2878:	eba0 010b 	sub.w	r1, r0, fp
    287c:	4441      	add	r1, r8
    287e:	f041 0101 	orr.w	r1, r1, #1
    2882:	6813      	ldr	r3, [r2, #0]
    2884:	f8c7 b008 	str.w	fp, [r7, #8]
    2888:	4443      	add	r3, r8
    288a:	42bc      	cmp	r4, r7
    288c:	f8cb 1004 	str.w	r1, [fp, #4]
    2890:	6013      	str	r3, [r2, #0]
    2892:	d015      	beq.n	28c0 <_malloc_r+0x29c>
    2894:	f1b9 0f0f 	cmp.w	r9, #15
    2898:	f240 8130 	bls.w	2afc <_malloc_r+0x4d8>
    289c:	6860      	ldr	r0, [r4, #4]
    289e:	f1a9 010c 	sub.w	r1, r9, #12
    28a2:	f021 0107 	bic.w	r1, r1, #7
    28a6:	f000 0001 	and.w	r0, r0, #1
    28aa:	eb04 0c01 	add.w	ip, r4, r1
    28ae:	4308      	orrs	r0, r1
    28b0:	f04f 0e05 	mov.w	lr, #5
    28b4:	290f      	cmp	r1, #15
    28b6:	6060      	str	r0, [r4, #4]
    28b8:	e9cc ee01 	strd	lr, lr, [ip, #4]
    28bc:	f200 813a 	bhi.w	2b34 <_malloc_r+0x510>
    28c0:	4a29      	ldr	r2, [pc, #164]	; (2968 <_malloc_r+0x344>)
    28c2:	482a      	ldr	r0, [pc, #168]	; (296c <_malloc_r+0x348>)
    28c4:	6811      	ldr	r1, [r2, #0]
    28c6:	68bc      	ldr	r4, [r7, #8]
    28c8:	428b      	cmp	r3, r1
    28ca:	6801      	ldr	r1, [r0, #0]
    28cc:	bf88      	it	hi
    28ce:	6013      	strhi	r3, [r2, #0]
    28d0:	6862      	ldr	r2, [r4, #4]
    28d2:	428b      	cmp	r3, r1
    28d4:	f022 0203 	bic.w	r2, r2, #3
    28d8:	bf88      	it	hi
    28da:	6003      	strhi	r3, [r0, #0]
    28dc:	e0a7      	b.n	2a2e <_malloc_r+0x40a>
    28de:	1962      	adds	r2, r4, r5
    28e0:	f043 0301 	orr.w	r3, r3, #1
    28e4:	f045 0501 	orr.w	r5, r5, #1
    28e8:	6065      	str	r5, [r4, #4]
    28ea:	4630      	mov	r0, r6
    28ec:	60ba      	str	r2, [r7, #8]
    28ee:	6053      	str	r3, [r2, #4]
    28f0:	f000 faaa 	bl	2e48 <__malloc_unlock>
    28f4:	3408      	adds	r4, #8
    28f6:	4620      	mov	r0, r4
    28f8:	b003      	add	sp, #12
    28fa:	e8bd 8ff0 	ldmia.w	sp!, {r4, r5, r6, r7, r8, r9, sl, fp, pc}
    28fe:	4423      	add	r3, r4
    2900:	68e1      	ldr	r1, [r4, #12]
    2902:	685a      	ldr	r2, [r3, #4]
    2904:	68a5      	ldr	r5, [r4, #8]
    2906:	f042 0201 	orr.w	r2, r2, #1
    290a:	60e9      	str	r1, [r5, #12]
    290c:	4630      	mov	r0, r6
    290e:	608d      	str	r5, [r1, #8]
    2910:	605a      	str	r2, [r3, #4]
    2912:	f000 fa99 	bl	2e48 <__malloc_unlock>
    2916:	3408      	adds	r4, #8
    2918:	4620      	mov	r0, r4
    291a:	b003      	add	sp, #12
    291c:	e8bd 8ff0 	ldmia.w	sp!, {r4, r5, r6, r7, r8, r9, sl, fp, pc}
    2920:	68dc      	ldr	r4, [r3, #12]
    2922:	42a3      	cmp	r3, r4
    2924:	bf08      	it	eq
    2926:	3002      	addeq	r0, #2
    2928:	f43f aed6 	beq.w	26d8 <_malloc_r+0xb4>
    292c:	e692      	b.n	2654 <_malloc_r+0x30>
    292e:	2b14      	cmp	r3, #20
    2930:	d971      	bls.n	2a16 <_malloc_r+0x3f2>
    2932:	2b54      	cmp	r3, #84	; 0x54
    2934:	f200 80ad 	bhi.w	2a92 <_malloc_r+0x46e>
    2938:	0b2b      	lsrs	r3, r5, #12
    293a:	f103 006f 	add.w	r0, r3, #111	; 0x6f
    293e:	f103 0c6e 	add.w	ip, r3, #110	; 0x6e
    2942:	00c3      	lsls	r3, r0, #3
    2944:	e6b3      	b.n	26ae <_malloc_r+0x8a>
    2946:	4423      	add	r3, r4
    2948:	4630      	mov	r0, r6
    294a:	685a      	ldr	r2, [r3, #4]
    294c:	f042 0201 	orr.w	r2, r2, #1
    2950:	605a      	str	r2, [r3, #4]
    2952:	3408      	adds	r4, #8
    2954:	f000 fa78 	bl	2e48 <__malloc_unlock>
    2958:	e68c      	b.n	2674 <_malloc_r+0x50>
    295a:	bf00      	nop
    295c:	2000059c 	.word	0x2000059c
    2960:	20001300 	.word	0x20001300
    2964:	200012d0 	.word	0x200012d0
    2968:	200012f8 	.word	0x200012f8
    296c:	200012fc 	.word	0x200012fc
    2970:	200005a4 	.word	0x200005a4
    2974:	200009a4 	.word	0x200009a4
    2978:	1961      	adds	r1, r4, r5
    297a:	f045 0e01 	orr.w	lr, r5, #1
    297e:	f042 0501 	orr.w	r5, r2, #1
    2982:	f8c4 e004 	str.w	lr, [r4, #4]
    2986:	4630      	mov	r0, r6
    2988:	e9c7 1104 	strd	r1, r1, [r7, #16]
    298c:	e9c1 cc02 	strd	ip, ip, [r1, #8]
    2990:	604d      	str	r5, [r1, #4]
    2992:	50e2      	str	r2, [r4, r3]
    2994:	f000 fa58 	bl	2e48 <__malloc_unlock>
    2998:	3408      	adds	r4, #8
    299a:	e66b      	b.n	2674 <_malloc_r+0x50>
    299c:	08e8      	lsrs	r0, r5, #3
    299e:	f105 0308 	add.w	r3, r5, #8
    29a2:	e64f      	b.n	2644 <_malloc_r+0x20>
    29a4:	f108 0801 	add.w	r8, r8, #1
    29a8:	f018 0f03 	tst.w	r8, #3
    29ac:	f10e 0e08 	add.w	lr, lr, #8
    29b0:	f47f aed0 	bne.w	2754 <_malloc_r+0x130>
    29b4:	e052      	b.n	2a5c <_malloc_r+0x438>
    29b6:	4419      	add	r1, r3
    29b8:	461c      	mov	r4, r3
    29ba:	684a      	ldr	r2, [r1, #4]
    29bc:	68db      	ldr	r3, [r3, #12]
    29be:	f854 5f08 	ldr.w	r5, [r4, #8]!
    29c2:	f042 0201 	orr.w	r2, r2, #1
    29c6:	604a      	str	r2, [r1, #4]
    29c8:	4630      	mov	r0, r6
    29ca:	60eb      	str	r3, [r5, #12]
    29cc:	609d      	str	r5, [r3, #8]
    29ce:	f000 fa3b 	bl	2e48 <__malloc_unlock>
    29d2:	e64f      	b.n	2674 <_malloc_r+0x50>
    29d4:	0a5a      	lsrs	r2, r3, #9
    29d6:	2a04      	cmp	r2, #4
    29d8:	d935      	bls.n	2a46 <_malloc_r+0x422>
    29da:	2a14      	cmp	r2, #20
    29dc:	d86f      	bhi.n	2abe <_malloc_r+0x49a>
    29de:	f102 015c 	add.w	r1, r2, #92	; 0x5c
    29e2:	00c9      	lsls	r1, r1, #3
    29e4:	325b      	adds	r2, #91	; 0x5b
    29e6:	eb07 0e01 	add.w	lr, r7, r1
    29ea:	5879      	ldr	r1, [r7, r1]
    29ec:	f1ae 0e08 	sub.w	lr, lr, #8
    29f0:	458e      	cmp	lr, r1
    29f2:	d058      	beq.n	2aa6 <_malloc_r+0x482>
    29f4:	684a      	ldr	r2, [r1, #4]
    29f6:	f022 0203 	bic.w	r2, r2, #3
    29fa:	429a      	cmp	r2, r3
    29fc:	d902      	bls.n	2a04 <_malloc_r+0x3e0>
    29fe:	6889      	ldr	r1, [r1, #8]
    2a00:	458e      	cmp	lr, r1
    2a02:	d1f7      	bne.n	29f4 <_malloc_r+0x3d0>
    2a04:	f8d1 e00c 	ldr.w	lr, [r1, #12]
    2a08:	687b      	ldr	r3, [r7, #4]
    2a0a:	e9c4 1e02 	strd	r1, lr, [r4, #8]
    2a0e:	f8ce 4008 	str.w	r4, [lr, #8]
    2a12:	60cc      	str	r4, [r1, #12]
    2a14:	e68c      	b.n	2730 <_malloc_r+0x10c>
    2a16:	f103 005c 	add.w	r0, r3, #92	; 0x5c
    2a1a:	f103 0c5b 	add.w	ip, r3, #91	; 0x5b
    2a1e:	00c3      	lsls	r3, r0, #3
    2a20:	e645      	b.n	26ae <_malloc_r+0x8a>
    2a22:	42bc      	cmp	r4, r7
    2a24:	d072      	beq.n	2b0c <_malloc_r+0x4e8>
    2a26:	68bc      	ldr	r4, [r7, #8]
    2a28:	6862      	ldr	r2, [r4, #4]
    2a2a:	f022 0203 	bic.w	r2, r2, #3
    2a2e:	4295      	cmp	r5, r2
    2a30:	eba2 0305 	sub.w	r3, r2, r5
    2a34:	d802      	bhi.n	2a3c <_malloc_r+0x418>
    2a36:	2b0f      	cmp	r3, #15
    2a38:	f73f af51 	bgt.w	28de <_malloc_r+0x2ba>
    2a3c:	4630      	mov	r0, r6
    2a3e:	f000 fa03 	bl	2e48 <__malloc_unlock>
    2a42:	2400      	movs	r4, #0
    2a44:	e616      	b.n	2674 <_malloc_r+0x50>
    2a46:	099a      	lsrs	r2, r3, #6
    2a48:	f102 0139 	add.w	r1, r2, #57	; 0x39
    2a4c:	00c9      	lsls	r1, r1, #3
    2a4e:	3238      	adds	r2, #56	; 0x38
    2a50:	e7c9      	b.n	29e6 <_malloc_r+0x3c2>
    2a52:	f8d9 9000 	ldr.w	r9, [r9]
    2a56:	4599      	cmp	r9, r3
    2a58:	f040 8083 	bne.w	2b62 <_malloc_r+0x53e>
    2a5c:	f010 0f03 	tst.w	r0, #3
    2a60:	f1a9 0308 	sub.w	r3, r9, #8
    2a64:	f100 30ff 	add.w	r0, r0, #4294967295	; 0xffffffff
    2a68:	d1f3      	bne.n	2a52 <_malloc_r+0x42e>
    2a6a:	687b      	ldr	r3, [r7, #4]
    2a6c:	ea23 0304 	bic.w	r3, r3, r4
    2a70:	607b      	str	r3, [r7, #4]
    2a72:	0064      	lsls	r4, r4, #1
    2a74:	429c      	cmp	r4, r3
    2a76:	f63f aeac 	bhi.w	27d2 <_malloc_r+0x1ae>
    2a7a:	b91c      	cbnz	r4, 2a84 <_malloc_r+0x460>
    2a7c:	e6a9      	b.n	27d2 <_malloc_r+0x1ae>
    2a7e:	0064      	lsls	r4, r4, #1
    2a80:	f108 0804 	add.w	r8, r8, #4
    2a84:	421c      	tst	r4, r3
    2a86:	d0fa      	beq.n	2a7e <_malloc_r+0x45a>
    2a88:	4640      	mov	r0, r8
    2a8a:	e65f      	b.n	274c <_malloc_r+0x128>
    2a8c:	f108 0810 	add.w	r8, r8, #16
    2a90:	e6bc      	b.n	280c <_malloc_r+0x1e8>
    2a92:	f5b3 7faa 	cmp.w	r3, #340	; 0x154
    2a96:	d826      	bhi.n	2ae6 <_malloc_r+0x4c2>
    2a98:	0beb      	lsrs	r3, r5, #15
    2a9a:	f103 0078 	add.w	r0, r3, #120	; 0x78
    2a9e:	f103 0c77 	add.w	ip, r3, #119	; 0x77
    2aa2:	00c3      	lsls	r3, r0, #3
    2aa4:	e603      	b.n	26ae <_malloc_r+0x8a>
    2aa6:	687b      	ldr	r3, [r7, #4]
    2aa8:	1092      	asrs	r2, r2, #2
    2aaa:	f04f 0801 	mov.w	r8, #1
    2aae:	fa08 f202 	lsl.w	r2, r8, r2
    2ab2:	4313      	orrs	r3, r2
    2ab4:	607b      	str	r3, [r7, #4]
    2ab6:	e7a8      	b.n	2a0a <_malloc_r+0x3e6>
    2ab8:	f44f 5380 	mov.w	r3, #4096	; 0x1000
    2abc:	e6ce      	b.n	285c <_malloc_r+0x238>
    2abe:	2a54      	cmp	r2, #84	; 0x54
    2ac0:	d829      	bhi.n	2b16 <_malloc_r+0x4f2>
    2ac2:	0b1a      	lsrs	r2, r3, #12
    2ac4:	f102 016f 	add.w	r1, r2, #111	; 0x6f
    2ac8:	00c9      	lsls	r1, r1, #3
    2aca:	326e      	adds	r2, #110	; 0x6e
    2acc:	e78b      	b.n	29e6 <_malloc_r+0x3c2>
    2ace:	f3c0 010b 	ubfx	r1, r0, #0, #12
    2ad2:	2900      	cmp	r1, #0
    2ad4:	f47f aeae 	bne.w	2834 <_malloc_r+0x210>
    2ad8:	eb09 0208 	add.w	r2, r9, r8
    2adc:	68b9      	ldr	r1, [r7, #8]
    2ade:	f042 0201 	orr.w	r2, r2, #1
    2ae2:	604a      	str	r2, [r1, #4]
    2ae4:	e6ec      	b.n	28c0 <_malloc_r+0x29c>
    2ae6:	f240 5254 	movw	r2, #1364	; 0x554
    2aea:	4293      	cmp	r3, r2
    2aec:	d81c      	bhi.n	2b28 <_malloc_r+0x504>
    2aee:	0cab      	lsrs	r3, r5, #18
    2af0:	f103 007d 	add.w	r0, r3, #125	; 0x7d
    2af4:	f103 0c7c 	add.w	ip, r3, #124	; 0x7c
    2af8:	00c3      	lsls	r3, r0, #3
    2afa:	e5d8      	b.n	26ae <_malloc_r+0x8a>
    2afc:	2301      	movs	r3, #1
    2afe:	f8cb 3004 	str.w	r3, [fp, #4]
    2b02:	e79b      	b.n	2a3c <_malloc_r+0x418>
    2b04:	2101      	movs	r1, #1
    2b06:	f04f 0800 	mov.w	r8, #0
    2b0a:	e6ba      	b.n	2882 <_malloc_r+0x25e>
    2b0c:	4a16      	ldr	r2, [pc, #88]	; (2b68 <_malloc_r+0x544>)
    2b0e:	6813      	ldr	r3, [r2, #0]
    2b10:	4443      	add	r3, r8
    2b12:	6013      	str	r3, [r2, #0]
    2b14:	e68e      	b.n	2834 <_malloc_r+0x210>
    2b16:	f5b2 7faa 	cmp.w	r2, #340	; 0x154
    2b1a:	d814      	bhi.n	2b46 <_malloc_r+0x522>
    2b1c:	0bda      	lsrs	r2, r3, #15
    2b1e:	f102 0178 	add.w	r1, r2, #120	; 0x78
    2b22:	00c9      	lsls	r1, r1, #3
    2b24:	3277      	adds	r2, #119	; 0x77
    2b26:	e75e      	b.n	29e6 <_malloc_r+0x3c2>
    2b28:	f44f 737e 	mov.w	r3, #1016	; 0x3f8
    2b2c:	207f      	movs	r0, #127	; 0x7f
    2b2e:	f04f 0c7e 	mov.w	ip, #126	; 0x7e
    2b32:	e5bc      	b.n	26ae <_malloc_r+0x8a>
    2b34:	f104 0108 	add.w	r1, r4, #8
    2b38:	4630      	mov	r0, r6
    2b3a:	9201      	str	r2, [sp, #4]
    2b3c:	f7ff fa50 	bl	1fe0 <_free_r>
    2b40:	9a01      	ldr	r2, [sp, #4]
    2b42:	6813      	ldr	r3, [r2, #0]
    2b44:	e6bc      	b.n	28c0 <_malloc_r+0x29c>
    2b46:	f240 5154 	movw	r1, #1364	; 0x554
    2b4a:	428a      	cmp	r2, r1
    2b4c:	d805      	bhi.n	2b5a <_malloc_r+0x536>
    2b4e:	0c9a      	lsrs	r2, r3, #18
    2b50:	f102 017d 	add.w	r1, r2, #125	; 0x7d
    2b54:	00c9      	lsls	r1, r1, #3
    2b56:	327c      	adds	r2, #124	; 0x7c
    2b58:	e745      	b.n	29e6 <_malloc_r+0x3c2>
    2b5a:	f44f 717e 	mov.w	r1, #1016	; 0x3f8
    2b5e:	227e      	movs	r2, #126	; 0x7e
    2b60:	e741      	b.n	29e6 <_malloc_r+0x3c2>
    2b62:	687b      	ldr	r3, [r7, #4]
    2b64:	e785      	b.n	2a72 <_malloc_r+0x44e>
    2b66:	bf00      	nop
    2b68:	200012d0 	.word	0x200012d0

00002b6c <__ascii_mbtowc>:
    2b6c:	b082      	sub	sp, #8
    2b6e:	b149      	cbz	r1, 2b84 <__ascii_mbtowc+0x18>
    2b70:	b15a      	cbz	r2, 2b8a <__ascii_mbtowc+0x1e>
    2b72:	b16b      	cbz	r3, 2b90 <__ascii_mbtowc+0x24>
    2b74:	7813      	ldrb	r3, [r2, #0]
    2b76:	600b      	str	r3, [r1, #0]
    2b78:	7812      	ldrb	r2, [r2, #0]
    2b7a:	1c10      	adds	r0, r2, #0
    2b7c:	bf18      	it	ne
    2b7e:	2001      	movne	r0, #1
    2b80:	b002      	add	sp, #8
    2b82:	4770      	bx	lr
    2b84:	a901      	add	r1, sp, #4
    2b86:	2a00      	cmp	r2, #0
    2b88:	d1f3      	bne.n	2b72 <__ascii_mbtowc+0x6>
    2b8a:	4610      	mov	r0, r2
    2b8c:	b002      	add	sp, #8
    2b8e:	4770      	bx	lr
    2b90:	f06f 0001 	mvn.w	r0, #1
    2b94:	e7f4      	b.n	2b80 <__ascii_mbtowc+0x14>
    2b96:	bf00      	nop
	...

00002ba0 <memchr>:
    2ba0:	f001 01ff 	and.w	r1, r1, #255	; 0xff
    2ba4:	2a10      	cmp	r2, #16
    2ba6:	db2b      	blt.n	2c00 <memchr+0x60>
    2ba8:	f010 0f07 	tst.w	r0, #7
    2bac:	d008      	beq.n	2bc0 <memchr+0x20>
    2bae:	f810 3b01 	ldrb.w	r3, [r0], #1
    2bb2:	3a01      	subs	r2, #1
    2bb4:	428b      	cmp	r3, r1
    2bb6:	d02d      	beq.n	2c14 <memchr+0x74>
    2bb8:	f010 0f07 	tst.w	r0, #7
    2bbc:	b342      	cbz	r2, 2c10 <memchr+0x70>
    2bbe:	d1f6      	bne.n	2bae <memchr+0xe>
    2bc0:	b4f0      	push	{r4, r5, r6, r7}
    2bc2:	ea41 2101 	orr.w	r1, r1, r1, lsl #8
    2bc6:	ea41 4101 	orr.w	r1, r1, r1, lsl #16
    2bca:	f022 0407 	bic.w	r4, r2, #7
    2bce:	f07f 0700 	mvns.w	r7, #0
    2bd2:	2300      	movs	r3, #0
    2bd4:	e8f0 5602 	ldrd	r5, r6, [r0], #8
    2bd8:	3c08      	subs	r4, #8
    2bda:	ea85 0501 	eor.w	r5, r5, r1
    2bde:	ea86 0601 	eor.w	r6, r6, r1
    2be2:	fa85 f547 	uadd8	r5, r5, r7
    2be6:	faa3 f587 	sel	r5, r3, r7
    2bea:	fa86 f647 	uadd8	r6, r6, r7
    2bee:	faa5 f687 	sel	r6, r5, r7
    2bf2:	b98e      	cbnz	r6, 2c18 <memchr+0x78>
    2bf4:	d1ee      	bne.n	2bd4 <memchr+0x34>
    2bf6:	bcf0      	pop	{r4, r5, r6, r7}
    2bf8:	f001 01ff 	and.w	r1, r1, #255	; 0xff
    2bfc:	f002 0207 	and.w	r2, r2, #7
    2c00:	b132      	cbz	r2, 2c10 <memchr+0x70>
    2c02:	f810 3b01 	ldrb.w	r3, [r0], #1
    2c06:	3a01      	subs	r2, #1
    2c08:	ea83 0301 	eor.w	r3, r3, r1
    2c0c:	b113      	cbz	r3, 2c14 <memchr+0x74>
    2c0e:	d1f8      	bne.n	2c02 <memchr+0x62>
    2c10:	2000      	movs	r0, #0
    2c12:	4770      	bx	lr
    2c14:	3801      	subs	r0, #1
    2c16:	4770      	bx	lr
    2c18:	2d00      	cmp	r5, #0
    2c1a:	bf06      	itte	eq
    2c1c:	4635      	moveq	r5, r6
    2c1e:	3803      	subeq	r0, #3
    2c20:	3807      	subne	r0, #7
    2c22:	f015 0f01 	tst.w	r5, #1
    2c26:	d107      	bne.n	2c38 <memchr+0x98>
    2c28:	3001      	adds	r0, #1
    2c2a:	f415 7f80 	tst.w	r5, #256	; 0x100
    2c2e:	bf02      	ittt	eq
    2c30:	3001      	addeq	r0, #1
    2c32:	f415 3fc0 	tsteq.w	r5, #98304	; 0x18000
    2c36:	3001      	addeq	r0, #1
    2c38:	bcf0      	pop	{r4, r5, r6, r7}
    2c3a:	3801      	subs	r0, #1
    2c3c:	4770      	bx	lr
    2c3e:	bf00      	nop

00002c40 <memcpy>:
    2c40:	4684      	mov	ip, r0
    2c42:	ea41 0300 	orr.w	r3, r1, r0
    2c46:	f013 0303 	ands.w	r3, r3, #3
    2c4a:	d16d      	bne.n	2d28 <memcpy+0xe8>
    2c4c:	3a40      	subs	r2, #64	; 0x40
    2c4e:	d341      	bcc.n	2cd4 <memcpy+0x94>
    2c50:	f851 3b04 	ldr.w	r3, [r1], #4
    2c54:	f840 3b04 	str.w	r3, [r0], #4
    2c58:	f851 3b04 	ldr.w	r3, [r1], #4
    2c5c:	f840 3b04 	str.w	r3, [r0], #4
    2c60:	f851 3b04 	ldr.w	r3, [r1], #4
    2c64:	f840 3b04 	str.w	r3, [r0], #4
    2c68:	f851 3b04 	ldr.w	r3, [r1], #4
    2c6c:	f840 3b04 	str.w	r3, [r0], #4
    2c70:	f851 3b04 	ldr.w	r3, [r1], #4
    2c74:	f840 3b04 	str.w	r3, [r0], #4
    2c78:	f851 3b04 	ldr.w	r3, [r1], #4
    2c7c:	f840 3b04 	str.w	r3, [r0], #4
    2c80:	f851 3b04 	ldr.w	r3, [r1], #4
    2c84:	f840 3b04 	str.w	r3, [r0], #4
    2c88:	f851 3b04 	ldr.w	r3, [r1], #4
    2c8c:	f840 3b04 	str.w	r3, [r0], #4
    2c90:	f851 3b04 	ldr.w	r3, [r1], #4
    2c94:	f840 3b04 	str.w	r3, [r0], #4
    2c98:	f851 3b04 	ldr.w	r3, [r1], #4
    2c9c:	f840 3b04 	str.w	r3, [r0], #4
    2ca0:	f851 3b04 	ldr.w	r3, [r1], #4
    2ca4:	f840 3b04 	str.w	r3, [r0], #4
    2ca8:	f851 3b04 	ldr.w	r3, [r1], #4
    2cac:	f840 3b04 	str.w	r3, [r0], #4
    2cb0:	f851 3b04 	ldr.w	r3, [r1], #4
    2cb4:	f840 3b04 	str.w	r3, [r0], #4
    2cb8:	f851 3b04 	ldr.w	r3, [r1], #4
    2cbc:	f840 3b04 	str.w	r3, [r0], #4
    2cc0:	f851 3b04 	ldr.w	r3, [r1], #4
    2cc4:	f840 3b04 	str.w	r3, [r0], #4
    2cc8:	f851 3b04 	ldr.w	r3, [r1], #4
    2ccc:	f840 3b04 	str.w	r3, [r0], #4
    2cd0:	3a40      	subs	r2, #64	; 0x40
    2cd2:	d2bd      	bcs.n	2c50 <memcpy+0x10>
    2cd4:	3230      	adds	r2, #48	; 0x30
    2cd6:	d311      	bcc.n	2cfc <memcpy+0xbc>
    2cd8:	f851 3b04 	ldr.w	r3, [r1], #4
    2cdc:	f840 3b04 	str.w	r3, [r0], #4
    2ce0:	f851 3b04 	ldr.w	r3, [r1], #4
    2ce4:	f840 3b04 	str.w	r3, [r0], #4
    2ce8:	f851 3b04 	ldr.w	r3, [r1], #4
    2cec:	f840 3b04 	str.w	r3, [r0], #4
    2cf0:	f851 3b04 	ldr.w	r3, [r1], #4
    2cf4:	f840 3b04 	str.w	r3, [r0], #4
    2cf8:	3a10      	subs	r2, #16
    2cfa:	d2ed      	bcs.n	2cd8 <memcpy+0x98>
    2cfc:	320c      	adds	r2, #12
    2cfe:	d305      	bcc.n	2d0c <memcpy+0xcc>
    2d00:	f851 3b04 	ldr.w	r3, [r1], #4
    2d04:	f840 3b04 	str.w	r3, [r0], #4
    2d08:	3a04      	subs	r2, #4
    2d0a:	d2f9      	bcs.n	2d00 <memcpy+0xc0>
    2d0c:	3204      	adds	r2, #4
    2d0e:	d008      	beq.n	2d22 <memcpy+0xe2>
    2d10:	07d2      	lsls	r2, r2, #31
    2d12:	bf1c      	itt	ne
    2d14:	f811 3b01 	ldrbne.w	r3, [r1], #1
    2d18:	f800 3b01 	strbne.w	r3, [r0], #1
    2d1c:	d301      	bcc.n	2d22 <memcpy+0xe2>
    2d1e:	880b      	ldrh	r3, [r1, #0]
    2d20:	8003      	strh	r3, [r0, #0]
    2d22:	4660      	mov	r0, ip
    2d24:	4770      	bx	lr
    2d26:	bf00      	nop
    2d28:	2a08      	cmp	r2, #8
    2d2a:	d313      	bcc.n	2d54 <memcpy+0x114>
    2d2c:	078b      	lsls	r3, r1, #30
    2d2e:	d08d      	beq.n	2c4c <memcpy+0xc>
    2d30:	f010 0303 	ands.w	r3, r0, #3
    2d34:	d08a      	beq.n	2c4c <memcpy+0xc>
    2d36:	f1c3 0304 	rsb	r3, r3, #4
    2d3a:	1ad2      	subs	r2, r2, r3
    2d3c:	07db      	lsls	r3, r3, #31
    2d3e:	bf1c      	itt	ne
    2d40:	f811 3b01 	ldrbne.w	r3, [r1], #1
    2d44:	f800 3b01 	strbne.w	r3, [r0], #1
    2d48:	d380      	bcc.n	2c4c <memcpy+0xc>
    2d4a:	f831 3b02 	ldrh.w	r3, [r1], #2
    2d4e:	f820 3b02 	strh.w	r3, [r0], #2
    2d52:	e77b      	b.n	2c4c <memcpy+0xc>
    2d54:	3a04      	subs	r2, #4
    2d56:	d3d9      	bcc.n	2d0c <memcpy+0xcc>
    2d58:	3a01      	subs	r2, #1
    2d5a:	f811 3b01 	ldrb.w	r3, [r1], #1
    2d5e:	f800 3b01 	strb.w	r3, [r0], #1
    2d62:	d2f9      	bcs.n	2d58 <memcpy+0x118>
    2d64:	780b      	ldrb	r3, [r1, #0]
    2d66:	7003      	strb	r3, [r0, #0]
    2d68:	784b      	ldrb	r3, [r1, #1]
    2d6a:	7043      	strb	r3, [r0, #1]
    2d6c:	788b      	ldrb	r3, [r1, #2]
    2d6e:	7083      	strb	r3, [r0, #2]
    2d70:	4660      	mov	r0, ip
    2d72:	4770      	bx	lr

00002d74 <memmove>:
    2d74:	4288      	cmp	r0, r1
    2d76:	b4f0      	push	{r4, r5, r6, r7}
    2d78:	d90d      	bls.n	2d96 <memmove+0x22>
    2d7a:	188b      	adds	r3, r1, r2
    2d7c:	4283      	cmp	r3, r0
    2d7e:	d90a      	bls.n	2d96 <memmove+0x22>
    2d80:	1884      	adds	r4, r0, r2
    2d82:	b132      	cbz	r2, 2d92 <memmove+0x1e>
    2d84:	4622      	mov	r2, r4
    2d86:	f813 4d01 	ldrb.w	r4, [r3, #-1]!
    2d8a:	f802 4d01 	strb.w	r4, [r2, #-1]!
    2d8e:	4299      	cmp	r1, r3
    2d90:	d1f9      	bne.n	2d86 <memmove+0x12>
    2d92:	bcf0      	pop	{r4, r5, r6, r7}
    2d94:	4770      	bx	lr
    2d96:	2a0f      	cmp	r2, #15
    2d98:	d949      	bls.n	2e2e <memmove+0xba>
    2d9a:	ea40 0301 	orr.w	r3, r0, r1
    2d9e:	079b      	lsls	r3, r3, #30
    2da0:	d147      	bne.n	2e32 <memmove+0xbe>
    2da2:	f1a2 0310 	sub.w	r3, r2, #16
    2da6:	091b      	lsrs	r3, r3, #4
    2da8:	f101 0720 	add.w	r7, r1, #32
    2dac:	eb07 1703 	add.w	r7, r7, r3, lsl #4
    2db0:	f101 0410 	add.w	r4, r1, #16
    2db4:	f100 0510 	add.w	r5, r0, #16
    2db8:	f854 6c10 	ldr.w	r6, [r4, #-16]
    2dbc:	f845 6c10 	str.w	r6, [r5, #-16]
    2dc0:	f854 6c0c 	ldr.w	r6, [r4, #-12]
    2dc4:	f845 6c0c 	str.w	r6, [r5, #-12]
    2dc8:	f854 6c08 	ldr.w	r6, [r4, #-8]
    2dcc:	f845 6c08 	str.w	r6, [r5, #-8]
    2dd0:	f854 6c04 	ldr.w	r6, [r4, #-4]
    2dd4:	f845 6c04 	str.w	r6, [r5, #-4]
    2dd8:	3410      	adds	r4, #16
    2dda:	42bc      	cmp	r4, r7
    2ddc:	f105 0510 	add.w	r5, r5, #16
    2de0:	d1ea      	bne.n	2db8 <memmove+0x44>
    2de2:	3301      	adds	r3, #1
    2de4:	f002 050f 	and.w	r5, r2, #15
    2de8:	011b      	lsls	r3, r3, #4
    2dea:	2d03      	cmp	r5, #3
    2dec:	4419      	add	r1, r3
    2dee:	4403      	add	r3, r0
    2df0:	d921      	bls.n	2e36 <memmove+0xc2>
    2df2:	1f1f      	subs	r7, r3, #4
    2df4:	460e      	mov	r6, r1
    2df6:	462c      	mov	r4, r5
    2df8:	3c04      	subs	r4, #4
    2dfa:	f856 cb04 	ldr.w	ip, [r6], #4
    2dfe:	f847 cf04 	str.w	ip, [r7, #4]!
    2e02:	2c03      	cmp	r4, #3
    2e04:	d8f8      	bhi.n	2df8 <memmove+0x84>
    2e06:	1f2c      	subs	r4, r5, #4
    2e08:	f024 0403 	bic.w	r4, r4, #3
    2e0c:	3404      	adds	r4, #4
    2e0e:	4423      	add	r3, r4
    2e10:	4421      	add	r1, r4
    2e12:	f002 0203 	and.w	r2, r2, #3
    2e16:	2a00      	cmp	r2, #0
    2e18:	d0bb      	beq.n	2d92 <memmove+0x1e>
    2e1a:	3b01      	subs	r3, #1
    2e1c:	440a      	add	r2, r1
    2e1e:	f811 4b01 	ldrb.w	r4, [r1], #1
    2e22:	f803 4f01 	strb.w	r4, [r3, #1]!
    2e26:	4291      	cmp	r1, r2
    2e28:	d1f9      	bne.n	2e1e <memmove+0xaa>
    2e2a:	bcf0      	pop	{r4, r5, r6, r7}
    2e2c:	4770      	bx	lr
    2e2e:	4603      	mov	r3, r0
    2e30:	e7f1      	b.n	2e16 <memmove+0xa2>
    2e32:	4603      	mov	r3, r0
    2e34:	e7f1      	b.n	2e1a <memmove+0xa6>
    2e36:	462a      	mov	r2, r5
    2e38:	e7ed      	b.n	2e16 <memmove+0xa2>
    2e3a:	bf00      	nop

00002e3c <__malloc_lock>:
    2e3c:	4801      	ldr	r0, [pc, #4]	; (2e44 <__malloc_lock+0x8>)
    2e3e:	f7fd ba6f 	b.w	320 <__retarget_lock_acquire_recursive>
    2e42:	bf00      	nop
    2e44:	20001408 	.word	0x20001408

00002e48 <__malloc_unlock>:
    2e48:	4801      	ldr	r0, [pc, #4]	; (2e50 <__malloc_unlock+0x8>)
    2e4a:	f7fd ba6b 	b.w	324 <__retarget_lock_release_recursive>
    2e4e:	bf00      	nop
    2e50:	20001408 	.word	0x20001408

00002e54 <_realloc_r>:
    2e54:	e92d 4ff0 	stmdb	sp!, {r4, r5, r6, r7, r8, r9, sl, fp, lr}
    2e58:	4692      	mov	sl, r2
    2e5a:	b083      	sub	sp, #12
    2e5c:	2900      	cmp	r1, #0
    2e5e:	f000 80a1 	beq.w	2fa4 <_realloc_r+0x150>
    2e62:	460d      	mov	r5, r1
    2e64:	4680      	mov	r8, r0
    2e66:	f10a 040b 	add.w	r4, sl, #11
    2e6a:	f7ff ffe7 	bl	2e3c <__malloc_lock>
    2e6e:	f855 2c04 	ldr.w	r2, [r5, #-4]
    2e72:	2c16      	cmp	r4, #22
    2e74:	f022 0603 	bic.w	r6, r2, #3
    2e78:	f1a5 0708 	sub.w	r7, r5, #8
    2e7c:	d83e      	bhi.n	2efc <_realloc_r+0xa8>
    2e7e:	2410      	movs	r4, #16
    2e80:	4621      	mov	r1, r4
    2e82:	45a2      	cmp	sl, r4
    2e84:	d83f      	bhi.n	2f06 <_realloc_r+0xb2>
    2e86:	428e      	cmp	r6, r1
    2e88:	eb07 0906 	add.w	r9, r7, r6
    2e8c:	da74      	bge.n	2f78 <_realloc_r+0x124>
    2e8e:	4bc7      	ldr	r3, [pc, #796]	; (31ac <_realloc_r+0x358>)
    2e90:	6898      	ldr	r0, [r3, #8]
    2e92:	4548      	cmp	r0, r9
    2e94:	f000 80aa 	beq.w	2fec <_realloc_r+0x198>
    2e98:	f8d9 0004 	ldr.w	r0, [r9, #4]
    2e9c:	f020 0301 	bic.w	r3, r0, #1
    2ea0:	444b      	add	r3, r9
    2ea2:	685b      	ldr	r3, [r3, #4]
    2ea4:	07db      	lsls	r3, r3, #31
    2ea6:	f140 8083 	bpl.w	2fb0 <_realloc_r+0x15c>
    2eaa:	07d2      	lsls	r2, r2, #31
    2eac:	d534      	bpl.n	2f18 <_realloc_r+0xc4>
    2eae:	4651      	mov	r1, sl
    2eb0:	4640      	mov	r0, r8
    2eb2:	f7ff fbb7 	bl	2624 <_malloc_r>
    2eb6:	4682      	mov	sl, r0
    2eb8:	b1e0      	cbz	r0, 2ef4 <_realloc_r+0xa0>
    2eba:	f855 3c04 	ldr.w	r3, [r5, #-4]
    2ebe:	f023 0301 	bic.w	r3, r3, #1
    2ec2:	443b      	add	r3, r7
    2ec4:	f1a0 0208 	sub.w	r2, r0, #8
    2ec8:	4293      	cmp	r3, r2
    2eca:	f000 80f9 	beq.w	30c0 <_realloc_r+0x26c>
    2ece:	1f32      	subs	r2, r6, #4
    2ed0:	2a24      	cmp	r2, #36	; 0x24
    2ed2:	f200 8107 	bhi.w	30e4 <_realloc_r+0x290>
    2ed6:	2a13      	cmp	r2, #19
    2ed8:	6829      	ldr	r1, [r5, #0]
    2eda:	f200 80e6 	bhi.w	30aa <_realloc_r+0x256>
    2ede:	4603      	mov	r3, r0
    2ee0:	462a      	mov	r2, r5
    2ee2:	6019      	str	r1, [r3, #0]
    2ee4:	6851      	ldr	r1, [r2, #4]
    2ee6:	6059      	str	r1, [r3, #4]
    2ee8:	6892      	ldr	r2, [r2, #8]
    2eea:	609a      	str	r2, [r3, #8]
    2eec:	4629      	mov	r1, r5
    2eee:	4640      	mov	r0, r8
    2ef0:	f7ff f876 	bl	1fe0 <_free_r>
    2ef4:	4640      	mov	r0, r8
    2ef6:	f7ff ffa7 	bl	2e48 <__malloc_unlock>
    2efa:	e04f      	b.n	2f9c <_realloc_r+0x148>
    2efc:	f024 0407 	bic.w	r4, r4, #7
    2f00:	2c00      	cmp	r4, #0
    2f02:	4621      	mov	r1, r4
    2f04:	dabd      	bge.n	2e82 <_realloc_r+0x2e>
    2f06:	f04f 0a00 	mov.w	sl, #0
    2f0a:	230c      	movs	r3, #12
    2f0c:	4650      	mov	r0, sl
    2f0e:	f8c8 3000 	str.w	r3, [r8]
    2f12:	b003      	add	sp, #12
    2f14:	e8bd 8ff0 	ldmia.w	sp!, {r4, r5, r6, r7, r8, r9, sl, fp, pc}
    2f18:	f855 3c08 	ldr.w	r3, [r5, #-8]
    2f1c:	eba7 0b03 	sub.w	fp, r7, r3
    2f20:	f8db 2004 	ldr.w	r2, [fp, #4]
    2f24:	f022 0203 	bic.w	r2, r2, #3
    2f28:	18b3      	adds	r3, r6, r2
    2f2a:	428b      	cmp	r3, r1
    2f2c:	dbbf      	blt.n	2eae <_realloc_r+0x5a>
    2f2e:	46da      	mov	sl, fp
    2f30:	f8db 100c 	ldr.w	r1, [fp, #12]
    2f34:	f85a 0f08 	ldr.w	r0, [sl, #8]!
    2f38:	1f32      	subs	r2, r6, #4
    2f3a:	2a24      	cmp	r2, #36	; 0x24
    2f3c:	60c1      	str	r1, [r0, #12]
    2f3e:	eb0b 0903 	add.w	r9, fp, r3
    2f42:	6088      	str	r0, [r1, #8]
    2f44:	f200 80c6 	bhi.w	30d4 <_realloc_r+0x280>
    2f48:	2a13      	cmp	r2, #19
    2f4a:	6829      	ldr	r1, [r5, #0]
    2f4c:	f240 80c0 	bls.w	30d0 <_realloc_r+0x27c>
    2f50:	f8cb 1008 	str.w	r1, [fp, #8]
    2f54:	6869      	ldr	r1, [r5, #4]
    2f56:	f8cb 100c 	str.w	r1, [fp, #12]
    2f5a:	2a1b      	cmp	r2, #27
    2f5c:	68a9      	ldr	r1, [r5, #8]
    2f5e:	f200 80d8 	bhi.w	3112 <_realloc_r+0x2be>
    2f62:	f10b 0210 	add.w	r2, fp, #16
    2f66:	3508      	adds	r5, #8
    2f68:	6011      	str	r1, [r2, #0]
    2f6a:	6869      	ldr	r1, [r5, #4]
    2f6c:	6051      	str	r1, [r2, #4]
    2f6e:	68a9      	ldr	r1, [r5, #8]
    2f70:	6091      	str	r1, [r2, #8]
    2f72:	461e      	mov	r6, r3
    2f74:	465f      	mov	r7, fp
    2f76:	4655      	mov	r5, sl
    2f78:	687b      	ldr	r3, [r7, #4]
    2f7a:	1b32      	subs	r2, r6, r4
    2f7c:	2a0f      	cmp	r2, #15
    2f7e:	f003 0301 	and.w	r3, r3, #1
    2f82:	d822      	bhi.n	2fca <_realloc_r+0x176>
    2f84:	4333      	orrs	r3, r6
    2f86:	607b      	str	r3, [r7, #4]
    2f88:	f8d9 3004 	ldr.w	r3, [r9, #4]
    2f8c:	f043 0301 	orr.w	r3, r3, #1
    2f90:	f8c9 3004 	str.w	r3, [r9, #4]
    2f94:	4640      	mov	r0, r8
    2f96:	f7ff ff57 	bl	2e48 <__malloc_unlock>
    2f9a:	46aa      	mov	sl, r5
    2f9c:	4650      	mov	r0, sl
    2f9e:	b003      	add	sp, #12
    2fa0:	e8bd 8ff0 	ldmia.w	sp!, {r4, r5, r6, r7, r8, r9, sl, fp, pc}
    2fa4:	4611      	mov	r1, r2
    2fa6:	b003      	add	sp, #12
    2fa8:	e8bd 4ff0 	ldmia.w	sp!, {r4, r5, r6, r7, r8, r9, sl, fp, lr}
    2fac:	f7ff bb3a 	b.w	2624 <_malloc_r>
    2fb0:	f020 0003 	bic.w	r0, r0, #3
    2fb4:	1833      	adds	r3, r6, r0
    2fb6:	428b      	cmp	r3, r1
    2fb8:	db61      	blt.n	307e <_realloc_r+0x22a>
    2fba:	e9d9 1202 	ldrd	r1, r2, [r9, #8]
    2fbe:	461e      	mov	r6, r3
    2fc0:	60ca      	str	r2, [r1, #12]
    2fc2:	eb07 0903 	add.w	r9, r7, r3
    2fc6:	6091      	str	r1, [r2, #8]
    2fc8:	e7d6      	b.n	2f78 <_realloc_r+0x124>
    2fca:	1939      	adds	r1, r7, r4
    2fcc:	4323      	orrs	r3, r4
    2fce:	f042 0201 	orr.w	r2, r2, #1
    2fd2:	607b      	str	r3, [r7, #4]
    2fd4:	604a      	str	r2, [r1, #4]
    2fd6:	f8d9 3004 	ldr.w	r3, [r9, #4]
    2fda:	f043 0301 	orr.w	r3, r3, #1
    2fde:	3108      	adds	r1, #8
    2fe0:	f8c9 3004 	str.w	r3, [r9, #4]
    2fe4:	4640      	mov	r0, r8
    2fe6:	f7fe fffb 	bl	1fe0 <_free_r>
    2fea:	e7d3      	b.n	2f94 <_realloc_r+0x140>
    2fec:	6840      	ldr	r0, [r0, #4]
    2fee:	f020 0903 	bic.w	r9, r0, #3
    2ff2:	44b1      	add	r9, r6
    2ff4:	f104 0010 	add.w	r0, r4, #16
    2ff8:	4581      	cmp	r9, r0
    2ffa:	da77      	bge.n	30ec <_realloc_r+0x298>
    2ffc:	07d2      	lsls	r2, r2, #31
    2ffe:	f53f af56 	bmi.w	2eae <_realloc_r+0x5a>
    3002:	f855 2c08 	ldr.w	r2, [r5, #-8]
    3006:	eba7 0b02 	sub.w	fp, r7, r2
    300a:	f8db 2004 	ldr.w	r2, [fp, #4]
    300e:	f022 0203 	bic.w	r2, r2, #3
    3012:	4491      	add	r9, r2
    3014:	4548      	cmp	r0, r9
    3016:	dc87      	bgt.n	2f28 <_realloc_r+0xd4>
    3018:	46da      	mov	sl, fp
    301a:	f8db 100c 	ldr.w	r1, [fp, #12]
    301e:	f85a 0f08 	ldr.w	r0, [sl, #8]!
    3022:	1f32      	subs	r2, r6, #4
    3024:	2a24      	cmp	r2, #36	; 0x24
    3026:	60c1      	str	r1, [r0, #12]
    3028:	6088      	str	r0, [r1, #8]
    302a:	f200 80a1 	bhi.w	3170 <_realloc_r+0x31c>
    302e:	2a13      	cmp	r2, #19
    3030:	6829      	ldr	r1, [r5, #0]
    3032:	f240 809b 	bls.w	316c <_realloc_r+0x318>
    3036:	f8cb 1008 	str.w	r1, [fp, #8]
    303a:	6869      	ldr	r1, [r5, #4]
    303c:	f8cb 100c 	str.w	r1, [fp, #12]
    3040:	2a1b      	cmp	r2, #27
    3042:	68a9      	ldr	r1, [r5, #8]
    3044:	f200 809b 	bhi.w	317e <_realloc_r+0x32a>
    3048:	f10b 0210 	add.w	r2, fp, #16
    304c:	3508      	adds	r5, #8
    304e:	6011      	str	r1, [r2, #0]
    3050:	6869      	ldr	r1, [r5, #4]
    3052:	6051      	str	r1, [r2, #4]
    3054:	68a9      	ldr	r1, [r5, #8]
    3056:	6091      	str	r1, [r2, #8]
    3058:	eb0b 0104 	add.w	r1, fp, r4
    305c:	eba9 0204 	sub.w	r2, r9, r4
    3060:	f042 0201 	orr.w	r2, r2, #1
    3064:	6099      	str	r1, [r3, #8]
    3066:	604a      	str	r2, [r1, #4]
    3068:	f8db 3004 	ldr.w	r3, [fp, #4]
    306c:	f003 0301 	and.w	r3, r3, #1
    3070:	431c      	orrs	r4, r3
    3072:	4640      	mov	r0, r8
    3074:	f8cb 4004 	str.w	r4, [fp, #4]
    3078:	f7ff fee6 	bl	2e48 <__malloc_unlock>
    307c:	e78e      	b.n	2f9c <_realloc_r+0x148>
    307e:	07d3      	lsls	r3, r2, #31
    3080:	f53f af15 	bmi.w	2eae <_realloc_r+0x5a>
    3084:	f855 3c08 	ldr.w	r3, [r5, #-8]
    3088:	eba7 0b03 	sub.w	fp, r7, r3
    308c:	f8db 2004 	ldr.w	r2, [fp, #4]
    3090:	f022 0203 	bic.w	r2, r2, #3
    3094:	4410      	add	r0, r2
    3096:	1983      	adds	r3, r0, r6
    3098:	428b      	cmp	r3, r1
    309a:	f6ff af45 	blt.w	2f28 <_realloc_r+0xd4>
    309e:	e9d9 1202 	ldrd	r1, r2, [r9, #8]
    30a2:	46da      	mov	sl, fp
    30a4:	60ca      	str	r2, [r1, #12]
    30a6:	6091      	str	r1, [r2, #8]
    30a8:	e742      	b.n	2f30 <_realloc_r+0xdc>
    30aa:	6001      	str	r1, [r0, #0]
    30ac:	686b      	ldr	r3, [r5, #4]
    30ae:	6043      	str	r3, [r0, #4]
    30b0:	2a1b      	cmp	r2, #27
    30b2:	d83a      	bhi.n	312a <_realloc_r+0x2d6>
    30b4:	f105 0208 	add.w	r2, r5, #8
    30b8:	f100 0308 	add.w	r3, r0, #8
    30bc:	68a9      	ldr	r1, [r5, #8]
    30be:	e710      	b.n	2ee2 <_realloc_r+0x8e>
    30c0:	f850 3c04 	ldr.w	r3, [r0, #-4]
    30c4:	f023 0303 	bic.w	r3, r3, #3
    30c8:	441e      	add	r6, r3
    30ca:	eb07 0906 	add.w	r9, r7, r6
    30ce:	e753      	b.n	2f78 <_realloc_r+0x124>
    30d0:	4652      	mov	r2, sl
    30d2:	e749      	b.n	2f68 <_realloc_r+0x114>
    30d4:	4629      	mov	r1, r5
    30d6:	4650      	mov	r0, sl
    30d8:	461e      	mov	r6, r3
    30da:	465f      	mov	r7, fp
    30dc:	f7ff fe4a 	bl	2d74 <memmove>
    30e0:	4655      	mov	r5, sl
    30e2:	e749      	b.n	2f78 <_realloc_r+0x124>
    30e4:	4629      	mov	r1, r5
    30e6:	f7ff fe45 	bl	2d74 <memmove>
    30ea:	e6ff      	b.n	2eec <_realloc_r+0x98>
    30ec:	4427      	add	r7, r4
    30ee:	eba9 0904 	sub.w	r9, r9, r4
    30f2:	f049 0201 	orr.w	r2, r9, #1
    30f6:	609f      	str	r7, [r3, #8]
    30f8:	607a      	str	r2, [r7, #4]
    30fa:	f855 3c04 	ldr.w	r3, [r5, #-4]
    30fe:	f003 0301 	and.w	r3, r3, #1
    3102:	431c      	orrs	r4, r3
    3104:	4640      	mov	r0, r8
    3106:	f845 4c04 	str.w	r4, [r5, #-4]
    310a:	f7ff fe9d 	bl	2e48 <__malloc_unlock>
    310e:	46aa      	mov	sl, r5
    3110:	e744      	b.n	2f9c <_realloc_r+0x148>
    3112:	f8cb 1010 	str.w	r1, [fp, #16]
    3116:	68e9      	ldr	r1, [r5, #12]
    3118:	f8cb 1014 	str.w	r1, [fp, #20]
    311c:	2a24      	cmp	r2, #36	; 0x24
    311e:	d010      	beq.n	3142 <_realloc_r+0x2ee>
    3120:	6929      	ldr	r1, [r5, #16]
    3122:	f10b 0218 	add.w	r2, fp, #24
    3126:	3510      	adds	r5, #16
    3128:	e71e      	b.n	2f68 <_realloc_r+0x114>
    312a:	68ab      	ldr	r3, [r5, #8]
    312c:	6083      	str	r3, [r0, #8]
    312e:	68eb      	ldr	r3, [r5, #12]
    3130:	60c3      	str	r3, [r0, #12]
    3132:	2a24      	cmp	r2, #36	; 0x24
    3134:	d010      	beq.n	3158 <_realloc_r+0x304>
    3136:	f105 0210 	add.w	r2, r5, #16
    313a:	f100 0310 	add.w	r3, r0, #16
    313e:	6929      	ldr	r1, [r5, #16]
    3140:	e6cf      	b.n	2ee2 <_realloc_r+0x8e>
    3142:	692a      	ldr	r2, [r5, #16]
    3144:	f8cb 2018 	str.w	r2, [fp, #24]
    3148:	696a      	ldr	r2, [r5, #20]
    314a:	f8cb 201c 	str.w	r2, [fp, #28]
    314e:	69a9      	ldr	r1, [r5, #24]
    3150:	f10b 0220 	add.w	r2, fp, #32
    3154:	3518      	adds	r5, #24
    3156:	e707      	b.n	2f68 <_realloc_r+0x114>
    3158:	692b      	ldr	r3, [r5, #16]
    315a:	6103      	str	r3, [r0, #16]
    315c:	696b      	ldr	r3, [r5, #20]
    315e:	6143      	str	r3, [r0, #20]
    3160:	69a9      	ldr	r1, [r5, #24]
    3162:	f105 0218 	add.w	r2, r5, #24
    3166:	f100 0318 	add.w	r3, r0, #24
    316a:	e6ba      	b.n	2ee2 <_realloc_r+0x8e>
    316c:	4652      	mov	r2, sl
    316e:	e76e      	b.n	304e <_realloc_r+0x1fa>
    3170:	4629      	mov	r1, r5
    3172:	4650      	mov	r0, sl
    3174:	9301      	str	r3, [sp, #4]
    3176:	f7ff fdfd 	bl	2d74 <memmove>
    317a:	9b01      	ldr	r3, [sp, #4]
    317c:	e76c      	b.n	3058 <_realloc_r+0x204>
    317e:	f8cb 1010 	str.w	r1, [fp, #16]
    3182:	68e9      	ldr	r1, [r5, #12]
    3184:	f8cb 1014 	str.w	r1, [fp, #20]
    3188:	2a24      	cmp	r2, #36	; 0x24
    318a:	d004      	beq.n	3196 <_realloc_r+0x342>
    318c:	6929      	ldr	r1, [r5, #16]
    318e:	f10b 0218 	add.w	r2, fp, #24
    3192:	3510      	adds	r5, #16
    3194:	e75b      	b.n	304e <_realloc_r+0x1fa>
    3196:	692a      	ldr	r2, [r5, #16]
    3198:	f8cb 2018 	str.w	r2, [fp, #24]
    319c:	696a      	ldr	r2, [r5, #20]
    319e:	f8cb 201c 	str.w	r2, [fp, #28]
    31a2:	69a9      	ldr	r1, [r5, #24]
    31a4:	f10b 0220 	add.w	r2, fp, #32
    31a8:	3518      	adds	r5, #24
    31aa:	e750      	b.n	304e <_realloc_r+0x1fa>
    31ac:	2000059c 	.word	0x2000059c

000031b0 <_sbrk_r>:
    31b0:	b538      	push	{r3, r4, r5, lr}
    31b2:	4c07      	ldr	r4, [pc, #28]	; (31d0 <_sbrk_r+0x20>)
    31b4:	2300      	movs	r3, #0
    31b6:	4605      	mov	r5, r0
    31b8:	4608      	mov	r0, r1
    31ba:	6023      	str	r3, [r4, #0]
    31bc:	f7fd fb12 	bl	7e4 <_sbrk>
    31c0:	1c43      	adds	r3, r0, #1
    31c2:	d000      	beq.n	31c6 <_sbrk_r+0x16>
    31c4:	bd38      	pop	{r3, r4, r5, pc}
    31c6:	6823      	ldr	r3, [r4, #0]
    31c8:	2b00      	cmp	r3, #0
    31ca:	d0fb      	beq.n	31c4 <_sbrk_r+0x14>
    31cc:	602b      	str	r3, [r5, #0]
    31ce:	bd38      	pop	{r3, r4, r5, pc}
    31d0:	20001664 	.word	0x20001664

000031d4 <__sread>:
    31d4:	b510      	push	{r4, lr}
    31d6:	460c      	mov	r4, r1
    31d8:	f9b1 100e 	ldrsh.w	r1, [r1, #14]
    31dc:	f000 fa18 	bl	3610 <_read_r>
    31e0:	2800      	cmp	r0, #0
    31e2:	db03      	blt.n	31ec <__sread+0x18>
    31e4:	6d23      	ldr	r3, [r4, #80]	; 0x50
    31e6:	4403      	add	r3, r0
    31e8:	6523      	str	r3, [r4, #80]	; 0x50
    31ea:	bd10      	pop	{r4, pc}
    31ec:	89a3      	ldrh	r3, [r4, #12]
    31ee:	f423 5380 	bic.w	r3, r3, #4096	; 0x1000
    31f2:	81a3      	strh	r3, [r4, #12]
    31f4:	bd10      	pop	{r4, pc}
    31f6:	bf00      	nop

000031f8 <__swrite>:
    31f8:	e92d 41f0 	stmdb	sp!, {r4, r5, r6, r7, r8, lr}
    31fc:	4616      	mov	r6, r2
    31fe:	f9b1 200c 	ldrsh.w	r2, [r1, #12]
    3202:	461f      	mov	r7, r3
    3204:	05d3      	lsls	r3, r2, #23
    3206:	460c      	mov	r4, r1
    3208:	4605      	mov	r5, r0
    320a:	f9b1 100e 	ldrsh.w	r1, [r1, #14]
    320e:	d507      	bpl.n	3220 <__swrite+0x28>
    3210:	2200      	movs	r2, #0
    3212:	2302      	movs	r3, #2
    3214:	f000 f9e6 	bl	35e4 <_lseek_r>
    3218:	f9b4 200c 	ldrsh.w	r2, [r4, #12]
    321c:	f9b4 100e 	ldrsh.w	r1, [r4, #14]
    3220:	f422 5280 	bic.w	r2, r2, #4096	; 0x1000
    3224:	81a2      	strh	r2, [r4, #12]
    3226:	463b      	mov	r3, r7
    3228:	4632      	mov	r2, r6
    322a:	4628      	mov	r0, r5
    322c:	e8bd 41f0 	ldmia.w	sp!, {r4, r5, r6, r7, r8, lr}
    3230:	f000 b922 	b.w	3478 <_write_r>

00003234 <__sseek>:
    3234:	b510      	push	{r4, lr}
    3236:	460c      	mov	r4, r1
    3238:	f9b1 100e 	ldrsh.w	r1, [r1, #14]
    323c:	f000 f9d2 	bl	35e4 <_lseek_r>
    3240:	89a3      	ldrh	r3, [r4, #12]
    3242:	1c42      	adds	r2, r0, #1
    3244:	bf0e      	itee	eq
    3246:	f423 5380 	biceq.w	r3, r3, #4096	; 0x1000
    324a:	f443 5380 	orrne.w	r3, r3, #4096	; 0x1000
    324e:	6520      	strne	r0, [r4, #80]	; 0x50
    3250:	81a3      	strh	r3, [r4, #12]
    3252:	bd10      	pop	{r4, pc}

00003254 <__sclose>:
    3254:	f9b1 100e 	ldrsh.w	r1, [r1, #14]
    3258:	f000 b924 	b.w	34a4 <_close_r>
	...

00003280 <strlen>:
    3280:	f890 f000 	pld	[r0]
    3284:	e96d 4502 	strd	r4, r5, [sp, #-8]!
    3288:	f020 0107 	bic.w	r1, r0, #7
    328c:	f06f 0c00 	mvn.w	ip, #0
    3290:	f010 0407 	ands.w	r4, r0, #7
    3294:	f891 f020 	pld	[r1, #32]
    3298:	f040 8049 	bne.w	332e <strlen+0xae>
    329c:	f04f 0400 	mov.w	r4, #0
    32a0:	f06f 0007 	mvn.w	r0, #7
    32a4:	e9d1 2300 	ldrd	r2, r3, [r1]
    32a8:	f891 f040 	pld	[r1, #64]	; 0x40
    32ac:	f100 0008 	add.w	r0, r0, #8
    32b0:	fa82 f24c 	uadd8	r2, r2, ip
    32b4:	faa4 f28c 	sel	r2, r4, ip
    32b8:	fa83 f34c 	uadd8	r3, r3, ip
    32bc:	faa2 f38c 	sel	r3, r2, ip
    32c0:	bb4b      	cbnz	r3, 3316 <strlen+0x96>
    32c2:	e9d1 2302 	ldrd	r2, r3, [r1, #8]
    32c6:	fa82 f24c 	uadd8	r2, r2, ip
    32ca:	f100 0008 	add.w	r0, r0, #8
    32ce:	faa4 f28c 	sel	r2, r4, ip
    32d2:	fa83 f34c 	uadd8	r3, r3, ip
    32d6:	faa2 f38c 	sel	r3, r2, ip
    32da:	b9e3      	cbnz	r3, 3316 <strlen+0x96>
    32dc:	e9d1 2304 	ldrd	r2, r3, [r1, #16]
    32e0:	fa82 f24c 	uadd8	r2, r2, ip
    32e4:	f100 0008 	add.w	r0, r0, #8
    32e8:	faa4 f28c 	sel	r2, r4, ip
    32ec:	fa83 f34c 	uadd8	r3, r3, ip
    32f0:	faa2 f38c 	sel	r3, r2, ip
    32f4:	b97b      	cbnz	r3, 3316 <strlen+0x96>
    32f6:	e9d1 2306 	ldrd	r2, r3, [r1, #24]
    32fa:	f101 0120 	add.w	r1, r1, #32
    32fe:	fa82 f24c 	uadd8	r2, r2, ip
    3302:	f100 0008 	add.w	r0, r0, #8
    3306:	faa4 f28c 	sel	r2, r4, ip
    330a:	fa83 f34c 	uadd8	r3, r3, ip
    330e:	faa2 f38c 	sel	r3, r2, ip
    3312:	2b00      	cmp	r3, #0
    3314:	d0c6      	beq.n	32a4 <strlen+0x24>
    3316:	2a00      	cmp	r2, #0
    3318:	bf04      	itt	eq
    331a:	3004      	addeq	r0, #4
    331c:	461a      	moveq	r2, r3
    331e:	ba12      	rev	r2, r2
    3320:	fab2 f282 	clz	r2, r2
    3324:	e8fd 4502 	ldrd	r4, r5, [sp], #8
    3328:	eb00 00d2 	add.w	r0, r0, r2, lsr #3
    332c:	4770      	bx	lr
    332e:	e9d1 2300 	ldrd	r2, r3, [r1]
    3332:	f004 0503 	and.w	r5, r4, #3
    3336:	f1c4 0000 	rsb	r0, r4, #0
    333a:	ea4f 05c5 	mov.w	r5, r5, lsl #3
    333e:	f014 0f04 	tst.w	r4, #4
    3342:	f891 f040 	pld	[r1, #64]	; 0x40
    3346:	fa0c f505 	lsl.w	r5, ip, r5
    334a:	ea62 0205 	orn	r2, r2, r5
    334e:	bf1c      	itt	ne
    3350:	ea63 0305 	ornne	r3, r3, r5
    3354:	4662      	movne	r2, ip
    3356:	f04f 0400 	mov.w	r4, #0
    335a:	e7a9      	b.n	32b0 <strlen+0x30>

0000335c <__swbuf_r>:
    335c:	b5f8      	push	{r3, r4, r5, r6, r7, lr}
    335e:	460d      	mov	r5, r1
    3360:	4614      	mov	r4, r2
    3362:	4606      	mov	r6, r0
    3364:	b110      	cbz	r0, 336c <__swbuf_r+0x10>
    3366:	6b83      	ldr	r3, [r0, #56]	; 0x38
    3368:	2b00      	cmp	r3, #0
    336a:	d043      	beq.n	33f4 <__swbuf_r+0x98>
    336c:	f9b4 200c 	ldrsh.w	r2, [r4, #12]
    3370:	69a3      	ldr	r3, [r4, #24]
    3372:	60a3      	str	r3, [r4, #8]
    3374:	b291      	uxth	r1, r2
    3376:	0708      	lsls	r0, r1, #28
    3378:	d51b      	bpl.n	33b2 <__swbuf_r+0x56>
    337a:	6923      	ldr	r3, [r4, #16]
    337c:	b1cb      	cbz	r3, 33b2 <__swbuf_r+0x56>
    337e:	b2ed      	uxtb	r5, r5
    3380:	0489      	lsls	r1, r1, #18
    3382:	462f      	mov	r7, r5
    3384:	d522      	bpl.n	33cc <__swbuf_r+0x70>
    3386:	6822      	ldr	r2, [r4, #0]
    3388:	6961      	ldr	r1, [r4, #20]
    338a:	1ad3      	subs	r3, r2, r3
    338c:	4299      	cmp	r1, r3
    338e:	dd29      	ble.n	33e4 <__swbuf_r+0x88>
    3390:	3301      	adds	r3, #1
    3392:	68a1      	ldr	r1, [r4, #8]
    3394:	1c50      	adds	r0, r2, #1
    3396:	3901      	subs	r1, #1
    3398:	60a1      	str	r1, [r4, #8]
    339a:	6020      	str	r0, [r4, #0]
    339c:	7015      	strb	r5, [r2, #0]
    339e:	6962      	ldr	r2, [r4, #20]
    33a0:	429a      	cmp	r2, r3
    33a2:	d02a      	beq.n	33fa <__swbuf_r+0x9e>
    33a4:	89a3      	ldrh	r3, [r4, #12]
    33a6:	07db      	lsls	r3, r3, #31
    33a8:	d501      	bpl.n	33ae <__swbuf_r+0x52>
    33aa:	2d0a      	cmp	r5, #10
    33ac:	d025      	beq.n	33fa <__swbuf_r+0x9e>
    33ae:	4638      	mov	r0, r7
    33b0:	bdf8      	pop	{r3, r4, r5, r6, r7, pc}
    33b2:	4621      	mov	r1, r4
    33b4:	4630      	mov	r0, r6
    33b6:	f7fe fb9d 	bl	1af4 <__swsetup_r>
    33ba:	bb20      	cbnz	r0, 3406 <__swbuf_r+0xaa>
    33bc:	f9b4 200c 	ldrsh.w	r2, [r4, #12]
    33c0:	6923      	ldr	r3, [r4, #16]
    33c2:	b291      	uxth	r1, r2
    33c4:	b2ed      	uxtb	r5, r5
    33c6:	0489      	lsls	r1, r1, #18
    33c8:	462f      	mov	r7, r5
    33ca:	d4dc      	bmi.n	3386 <__swbuf_r+0x2a>
    33cc:	6e61      	ldr	r1, [r4, #100]	; 0x64
    33ce:	f442 5200 	orr.w	r2, r2, #8192	; 0x2000
    33d2:	f421 5100 	bic.w	r1, r1, #8192	; 0x2000
    33d6:	81a2      	strh	r2, [r4, #12]
    33d8:	6822      	ldr	r2, [r4, #0]
    33da:	6661      	str	r1, [r4, #100]	; 0x64
    33dc:	6961      	ldr	r1, [r4, #20]
    33de:	1ad3      	subs	r3, r2, r3
    33e0:	4299      	cmp	r1, r3
    33e2:	dcd5      	bgt.n	3390 <__swbuf_r+0x34>
    33e4:	4621      	mov	r1, r4
    33e6:	4630      	mov	r0, r6
    33e8:	f7fe fc94 	bl	1d14 <_fflush_r>
    33ec:	b958      	cbnz	r0, 3406 <__swbuf_r+0xaa>
    33ee:	6822      	ldr	r2, [r4, #0]
    33f0:	2301      	movs	r3, #1
    33f2:	e7ce      	b.n	3392 <__swbuf_r+0x36>
    33f4:	f7fe fcea 	bl	1dcc <__sinit>
    33f8:	e7b8      	b.n	336c <__swbuf_r+0x10>
    33fa:	4621      	mov	r1, r4
    33fc:	4630      	mov	r0, r6
    33fe:	f7fe fc89 	bl	1d14 <_fflush_r>
    3402:	2800      	cmp	r0, #0
    3404:	d0d3      	beq.n	33ae <__swbuf_r+0x52>
    3406:	f04f 37ff 	mov.w	r7, #4294967295	; 0xffffffff
    340a:	e7d0      	b.n	33ae <__swbuf_r+0x52>

0000340c <_wcrtomb_r>:
    340c:	b5f0      	push	{r4, r5, r6, r7, lr}
    340e:	4c11      	ldr	r4, [pc, #68]	; (3454 <_wcrtomb_r+0x48>)
    3410:	6824      	ldr	r4, [r4, #0]
    3412:	b085      	sub	sp, #20
    3414:	4606      	mov	r6, r0
    3416:	6b64      	ldr	r4, [r4, #52]	; 0x34
    3418:	461f      	mov	r7, r3
    341a:	b151      	cbz	r1, 3432 <_wcrtomb_r+0x26>
    341c:	4d0e      	ldr	r5, [pc, #56]	; (3458 <_wcrtomb_r+0x4c>)
    341e:	2c00      	cmp	r4, #0
    3420:	bf08      	it	eq
    3422:	462c      	moveq	r4, r5
    3424:	f8d4 40e0 	ldr.w	r4, [r4, #224]	; 0xe0
    3428:	47a0      	blx	r4
    342a:	1c43      	adds	r3, r0, #1
    342c:	d00c      	beq.n	3448 <_wcrtomb_r+0x3c>
    342e:	b005      	add	sp, #20
    3430:	bdf0      	pop	{r4, r5, r6, r7, pc}
    3432:	4a09      	ldr	r2, [pc, #36]	; (3458 <_wcrtomb_r+0x4c>)
    3434:	2c00      	cmp	r4, #0
    3436:	bf08      	it	eq
    3438:	4614      	moveq	r4, r2
    343a:	460a      	mov	r2, r1
    343c:	f8d4 40e0 	ldr.w	r4, [r4, #224]	; 0xe0
    3440:	a901      	add	r1, sp, #4
    3442:	47a0      	blx	r4
    3444:	1c43      	adds	r3, r0, #1
    3446:	d1f2      	bne.n	342e <_wcrtomb_r+0x22>
    3448:	2200      	movs	r2, #0
    344a:	238a      	movs	r3, #138	; 0x8a
    344c:	603a      	str	r2, [r7, #0]
    344e:	6033      	str	r3, [r6, #0]
    3450:	b005      	add	sp, #20
    3452:	bdf0      	pop	{r4, r5, r6, r7, pc}
    3454:	20000000 	.word	0x20000000
    3458:	20000430 	.word	0x20000430

0000345c <__ascii_wctomb>:
    345c:	b121      	cbz	r1, 3468 <__ascii_wctomb+0xc>
    345e:	2aff      	cmp	r2, #255	; 0xff
    3460:	d804      	bhi.n	346c <__ascii_wctomb+0x10>
    3462:	700a      	strb	r2, [r1, #0]
    3464:	2001      	movs	r0, #1
    3466:	4770      	bx	lr
    3468:	4608      	mov	r0, r1
    346a:	4770      	bx	lr
    346c:	238a      	movs	r3, #138	; 0x8a
    346e:	6003      	str	r3, [r0, #0]
    3470:	f04f 30ff 	mov.w	r0, #4294967295	; 0xffffffff
    3474:	4770      	bx	lr
    3476:	bf00      	nop

00003478 <_write_r>:
    3478:	b570      	push	{r4, r5, r6, lr}
    347a:	460d      	mov	r5, r1
    347c:	4c08      	ldr	r4, [pc, #32]	; (34a0 <_write_r+0x28>)
    347e:	4611      	mov	r1, r2
    3480:	4606      	mov	r6, r0
    3482:	461a      	mov	r2, r3
    3484:	4628      	mov	r0, r5
    3486:	2300      	movs	r3, #0
    3488:	6023      	str	r3, [r4, #0]
    348a:	f7fd f989 	bl	7a0 <_write>
    348e:	1c43      	adds	r3, r0, #1
    3490:	d000      	beq.n	3494 <_write_r+0x1c>
    3492:	bd70      	pop	{r4, r5, r6, pc}
    3494:	6823      	ldr	r3, [r4, #0]
    3496:	2b00      	cmp	r3, #0
    3498:	d0fb      	beq.n	3492 <_write_r+0x1a>
    349a:	6033      	str	r3, [r6, #0]
    349c:	bd70      	pop	{r4, r5, r6, pc}
    349e:	bf00      	nop
    34a0:	20001664 	.word	0x20001664

000034a4 <_close_r>:
    34a4:	b538      	push	{r3, r4, r5, lr}
    34a6:	4c07      	ldr	r4, [pc, #28]	; (34c4 <_close_r+0x20>)
    34a8:	2300      	movs	r3, #0
    34aa:	4605      	mov	r5, r0
    34ac:	4608      	mov	r0, r1
    34ae:	6023      	str	r3, [r4, #0]
    34b0:	f000 f93e 	bl	3730 <_close>
    34b4:	1c43      	adds	r3, r0, #1
    34b6:	d000      	beq.n	34ba <_close_r+0x16>
    34b8:	bd38      	pop	{r3, r4, r5, pc}
    34ba:	6823      	ldr	r3, [r4, #0]
    34bc:	2b00      	cmp	r3, #0
    34be:	d0fb      	beq.n	34b8 <_close_r+0x14>
    34c0:	602b      	str	r3, [r5, #0]
    34c2:	bd38      	pop	{r3, r4, r5, pc}
    34c4:	20001664 	.word	0x20001664

000034c8 <_fclose_r>:
    34c8:	b570      	push	{r4, r5, r6, lr}
    34ca:	2900      	cmp	r1, #0
    34cc:	d048      	beq.n	3560 <_fclose_r+0x98>
    34ce:	4605      	mov	r5, r0
    34d0:	460c      	mov	r4, r1
    34d2:	b110      	cbz	r0, 34da <_fclose_r+0x12>
    34d4:	6b83      	ldr	r3, [r0, #56]	; 0x38
    34d6:	2b00      	cmp	r3, #0
    34d8:	d048      	beq.n	356c <_fclose_r+0xa4>
    34da:	6e62      	ldr	r2, [r4, #100]	; 0x64
    34dc:	f9b4 300c 	ldrsh.w	r3, [r4, #12]
    34e0:	07d0      	lsls	r0, r2, #31
    34e2:	d440      	bmi.n	3566 <_fclose_r+0x9e>
    34e4:	0599      	lsls	r1, r3, #22
    34e6:	d530      	bpl.n	354a <_fclose_r+0x82>
    34e8:	4621      	mov	r1, r4
    34ea:	4628      	mov	r0, r5
    34ec:	f7fe fb68 	bl	1bc0 <__sflush_r>
    34f0:	6ae3      	ldr	r3, [r4, #44]	; 0x2c
    34f2:	4606      	mov	r6, r0
    34f4:	b133      	cbz	r3, 3504 <_fclose_r+0x3c>
    34f6:	69e1      	ldr	r1, [r4, #28]
    34f8:	4628      	mov	r0, r5
    34fa:	4798      	blx	r3
    34fc:	2800      	cmp	r0, #0
    34fe:	bfb8      	it	lt
    3500:	f04f 36ff 	movlt.w	r6, #4294967295	; 0xffffffff
    3504:	89a3      	ldrh	r3, [r4, #12]
    3506:	061a      	lsls	r2, r3, #24
    3508:	d43c      	bmi.n	3584 <_fclose_r+0xbc>
    350a:	6b21      	ldr	r1, [r4, #48]	; 0x30
    350c:	b141      	cbz	r1, 3520 <_fclose_r+0x58>
    350e:	f104 0340 	add.w	r3, r4, #64	; 0x40
    3512:	4299      	cmp	r1, r3
    3514:	d002      	beq.n	351c <_fclose_r+0x54>
    3516:	4628      	mov	r0, r5
    3518:	f7fe fd62 	bl	1fe0 <_free_r>
    351c:	2300      	movs	r3, #0
    351e:	6323      	str	r3, [r4, #48]	; 0x30
    3520:	6c61      	ldr	r1, [r4, #68]	; 0x44
    3522:	b121      	cbz	r1, 352e <_fclose_r+0x66>
    3524:	4628      	mov	r0, r5
    3526:	f7fe fd5b 	bl	1fe0 <_free_r>
    352a:	2300      	movs	r3, #0
    352c:	6463      	str	r3, [r4, #68]	; 0x44
    352e:	f7fe fc79 	bl	1e24 <__sfp_lock_acquire>
    3532:	6e63      	ldr	r3, [r4, #100]	; 0x64
    3534:	2200      	movs	r2, #0
    3536:	07db      	lsls	r3, r3, #31
    3538:	81a2      	strh	r2, [r4, #12]
    353a:	d51f      	bpl.n	357c <_fclose_r+0xb4>
    353c:	6da0      	ldr	r0, [r4, #88]	; 0x58
    353e:	f7fc feed 	bl	31c <__retarget_lock_close_recursive>
    3542:	f7fe fc75 	bl	1e30 <__sfp_lock_release>
    3546:	4630      	mov	r0, r6
    3548:	bd70      	pop	{r4, r5, r6, pc}
    354a:	6da0      	ldr	r0, [r4, #88]	; 0x58
    354c:	f7fc fee8 	bl	320 <__retarget_lock_acquire_recursive>
    3550:	f9b4 300c 	ldrsh.w	r3, [r4, #12]
    3554:	2b00      	cmp	r3, #0
    3556:	d1c7      	bne.n	34e8 <_fclose_r+0x20>
    3558:	6e66      	ldr	r6, [r4, #100]	; 0x64
    355a:	f016 0601 	ands.w	r6, r6, #1
    355e:	d016      	beq.n	358e <_fclose_r+0xc6>
    3560:	2600      	movs	r6, #0
    3562:	4630      	mov	r0, r6
    3564:	bd70      	pop	{r4, r5, r6, pc}
    3566:	2b00      	cmp	r3, #0
    3568:	d0fa      	beq.n	3560 <_fclose_r+0x98>
    356a:	e7bd      	b.n	34e8 <_fclose_r+0x20>
    356c:	f7fe fc2e 	bl	1dcc <__sinit>
    3570:	6e62      	ldr	r2, [r4, #100]	; 0x64
    3572:	f9b4 300c 	ldrsh.w	r3, [r4, #12]
    3576:	07d0      	lsls	r0, r2, #31
    3578:	d4f5      	bmi.n	3566 <_fclose_r+0x9e>
    357a:	e7b3      	b.n	34e4 <_fclose_r+0x1c>
    357c:	6da0      	ldr	r0, [r4, #88]	; 0x58
    357e:	f7fc fed1 	bl	324 <__retarget_lock_release_recursive>
    3582:	e7db      	b.n	353c <_fclose_r+0x74>
    3584:	6921      	ldr	r1, [r4, #16]
    3586:	4628      	mov	r0, r5
    3588:	f7fe fd2a 	bl	1fe0 <_free_r>
    358c:	e7bd      	b.n	350a <_fclose_r+0x42>
    358e:	6da0      	ldr	r0, [r4, #88]	; 0x58
    3590:	f7fc fec8 	bl	324 <__retarget_lock_release_recursive>
    3594:	4630      	mov	r0, r6
    3596:	bd70      	pop	{r4, r5, r6, pc}

00003598 <_fstat_r>:
    3598:	b538      	push	{r3, r4, r5, lr}
    359a:	460b      	mov	r3, r1
    359c:	4c07      	ldr	r4, [pc, #28]	; (35bc <_fstat_r+0x24>)
    359e:	4605      	mov	r5, r0
    35a0:	4611      	mov	r1, r2
    35a2:	4618      	mov	r0, r3
    35a4:	2300      	movs	r3, #0
    35a6:	6023      	str	r3, [r4, #0]
    35a8:	f7fd f927 	bl	7fa <_fstat>
    35ac:	1c43      	adds	r3, r0, #1
    35ae:	d000      	beq.n	35b2 <_fstat_r+0x1a>
    35b0:	bd38      	pop	{r3, r4, r5, pc}
    35b2:	6823      	ldr	r3, [r4, #0]
    35b4:	2b00      	cmp	r3, #0
    35b6:	d0fb      	beq.n	35b0 <_fstat_r+0x18>
    35b8:	602b      	str	r3, [r5, #0]
    35ba:	bd38      	pop	{r3, r4, r5, pc}
    35bc:	20001664 	.word	0x20001664

000035c0 <_isatty_r>:
    35c0:	b538      	push	{r3, r4, r5, lr}
    35c2:	4c07      	ldr	r4, [pc, #28]	; (35e0 <_isatty_r+0x20>)
    35c4:	2300      	movs	r3, #0
    35c6:	4605      	mov	r5, r0
    35c8:	4608      	mov	r0, r1
    35ca:	6023      	str	r3, [r4, #0]
    35cc:	f000 f8e6 	bl	379c <_isatty>
    35d0:	1c43      	adds	r3, r0, #1
    35d2:	d000      	beq.n	35d6 <_isatty_r+0x16>
    35d4:	bd38      	pop	{r3, r4, r5, pc}
    35d6:	6823      	ldr	r3, [r4, #0]
    35d8:	2b00      	cmp	r3, #0
    35da:	d0fb      	beq.n	35d4 <_isatty_r+0x14>
    35dc:	602b      	str	r3, [r5, #0]
    35de:	bd38      	pop	{r3, r4, r5, pc}
    35e0:	20001664 	.word	0x20001664

000035e4 <_lseek_r>:
    35e4:	b570      	push	{r4, r5, r6, lr}
    35e6:	460d      	mov	r5, r1
    35e8:	4c08      	ldr	r4, [pc, #32]	; (360c <_lseek_r+0x28>)
    35ea:	4611      	mov	r1, r2
    35ec:	4606      	mov	r6, r0
    35ee:	461a      	mov	r2, r3
    35f0:	4628      	mov	r0, r5
    35f2:	2300      	movs	r3, #0
    35f4:	6023      	str	r3, [r4, #0]
    35f6:	f000 f899 	bl	372c <_lseek>
    35fa:	1c43      	adds	r3, r0, #1
    35fc:	d000      	beq.n	3600 <_lseek_r+0x1c>
    35fe:	bd70      	pop	{r4, r5, r6, pc}
    3600:	6823      	ldr	r3, [r4, #0]
    3602:	2b00      	cmp	r3, #0
    3604:	d0fb      	beq.n	35fe <_lseek_r+0x1a>
    3606:	6033      	str	r3, [r6, #0]
    3608:	bd70      	pop	{r4, r5, r6, pc}
    360a:	bf00      	nop
    360c:	20001664 	.word	0x20001664

00003610 <_read_r>:
    3610:	b570      	push	{r4, r5, r6, lr}
    3612:	460d      	mov	r5, r1
    3614:	4c08      	ldr	r4, [pc, #32]	; (3638 <_read_r+0x28>)
    3616:	4611      	mov	r1, r2
    3618:	4606      	mov	r6, r0
    361a:	461a      	mov	r2, r3
    361c:	4628      	mov	r0, r5
    361e:	2300      	movs	r3, #0
    3620:	6023      	str	r3, [r4, #0]
    3622:	f7fd f8f6 	bl	812 <_read>
    3626:	1c43      	adds	r3, r0, #1
    3628:	d000      	beq.n	362c <_read_r+0x1c>
    362a:	bd70      	pop	{r4, r5, r6, pc}
    362c:	6823      	ldr	r3, [r4, #0]
    362e:	2b00      	cmp	r3, #0
    3630:	d0fb      	beq.n	362a <_read_r+0x1a>
    3632:	6033      	str	r3, [r6, #0]
    3634:	bd70      	pop	{r4, r5, r6, pc}
    3636:	bf00      	nop
    3638:	20001664 	.word	0x20001664

0000363c <findslot>:
    363c:	4b0b      	ldr	r3, [pc, #44]	; (366c <findslot+0x30>)
    363e:	681b      	ldr	r3, [r3, #0]
    3640:	b510      	push	{r4, lr}
    3642:	4604      	mov	r4, r0
    3644:	b10b      	cbz	r3, 364a <findslot+0xe>
    3646:	6b9a      	ldr	r2, [r3, #56]	; 0x38
    3648:	b14a      	cbz	r2, 365e <findslot+0x22>
    364a:	2c13      	cmp	r4, #19
    364c:	d80b      	bhi.n	3666 <findslot+0x2a>
    364e:	4808      	ldr	r0, [pc, #32]	; (3670 <findslot+0x34>)
    3650:	f850 3034 	ldr.w	r3, [r0, r4, lsl #3]
    3654:	3301      	adds	r3, #1
    3656:	d006      	beq.n	3666 <findslot+0x2a>
    3658:	eb00 00c4 	add.w	r0, r0, r4, lsl #3
    365c:	bd10      	pop	{r4, pc}
    365e:	4618      	mov	r0, r3
    3660:	f7fe fbb4 	bl	1dcc <__sinit>
    3664:	e7f1      	b.n	364a <findslot+0xe>
    3666:	2000      	movs	r0, #0
    3668:	bd10      	pop	{r4, pc}
    366a:	bf00      	nop
    366c:	20000000 	.word	0x20000000
    3670:	20001304 	.word	0x20001304

00003674 <checkerror.part.0>:
    3674:	b570      	push	{r4, r5, r6, lr}
    3676:	f003 f809 	bl	668c <__errno>
    367a:	2413      	movs	r4, #19
    367c:	4605      	mov	r5, r0
    367e:	2600      	movs	r6, #0
    3680:	4620      	mov	r0, r4
    3682:	4631      	mov	r1, r6
    3684:	beab      	bkpt	0x00ab
    3686:	4604      	mov	r4, r0
    3688:	f04f 30ff 	mov.w	r0, #4294967295	; 0xffffffff
    368c:	602c      	str	r4, [r5, #0]
    368e:	bd70      	pop	{r4, r5, r6, pc}

00003690 <_swilseek>:
    3690:	b5f0      	push	{r4, r5, r6, r7, lr}
    3692:	b083      	sub	sp, #12
    3694:	460d      	mov	r5, r1
    3696:	4614      	mov	r4, r2
    3698:	f7ff ffd0 	bl	363c <findslot>
    369c:	2800      	cmp	r0, #0
    369e:	d03d      	beq.n	371c <_swilseek+0x8c>
    36a0:	2c02      	cmp	r4, #2
    36a2:	d834      	bhi.n	370e <_swilseek+0x7e>
    36a4:	2c01      	cmp	r4, #1
    36a6:	4606      	mov	r6, r0
    36a8:	d01f      	beq.n	36ea <_swilseek+0x5a>
    36aa:	2c02      	cmp	r4, #2
    36ac:	6803      	ldr	r3, [r0, #0]
    36ae:	d00f      	beq.n	36d0 <_swilseek+0x40>
    36b0:	466f      	mov	r7, sp
    36b2:	e9cd 3500 	strd	r3, r5, [sp]
    36b6:	240a      	movs	r4, #10
    36b8:	4620      	mov	r0, r4
    36ba:	4639      	mov	r1, r7
    36bc:	beab      	bkpt	0x00ab
    36be:	4604      	mov	r4, r0
    36c0:	1c63      	adds	r3, r4, #1
    36c2:	d018      	beq.n	36f6 <_swilseek+0x66>
    36c4:	2c00      	cmp	r4, #0
    36c6:	db1f      	blt.n	3708 <_swilseek+0x78>
    36c8:	6075      	str	r5, [r6, #4]
    36ca:	4628      	mov	r0, r5
    36cc:	b003      	add	sp, #12
    36ce:	bdf0      	pop	{r4, r5, r6, r7, pc}
    36d0:	af02      	add	r7, sp, #8
    36d2:	240c      	movs	r4, #12
    36d4:	f847 3d08 	str.w	r3, [r7, #-8]!
    36d8:	4620      	mov	r0, r4
    36da:	4639      	mov	r1, r7
    36dc:	beab      	bkpt	0x00ab
    36de:	4604      	mov	r4, r0
    36e0:	1c61      	adds	r1, r4, #1
    36e2:	d00c      	beq.n	36fe <_swilseek+0x6e>
    36e4:	4425      	add	r5, r4
    36e6:	6833      	ldr	r3, [r6, #0]
    36e8:	e7e3      	b.n	36b2 <_swilseek+0x22>
    36ea:	6840      	ldr	r0, [r0, #4]
    36ec:	182d      	adds	r5, r5, r0
    36ee:	d40e      	bmi.n	370e <_swilseek+0x7e>
    36f0:	6833      	ldr	r3, [r6, #0]
    36f2:	466f      	mov	r7, sp
    36f4:	e7dd      	b.n	36b2 <_swilseek+0x22>
    36f6:	f7ff ffbd 	bl	3674 <checkerror.part.0>
    36fa:	4604      	mov	r4, r0
    36fc:	e7e2      	b.n	36c4 <_swilseek+0x34>
    36fe:	f7ff ffb9 	bl	3674 <checkerror.part.0>
    3702:	1c42      	adds	r2, r0, #1
    3704:	4604      	mov	r4, r0
    3706:	d1ed      	bne.n	36e4 <_swilseek+0x54>
    3708:	f04f 35ff 	mov.w	r5, #4294967295	; 0xffffffff
    370c:	e7dd      	b.n	36ca <_swilseek+0x3a>
    370e:	f002 ffbd 	bl	668c <__errno>
    3712:	2316      	movs	r3, #22
    3714:	6003      	str	r3, [r0, #0]
    3716:	f04f 35ff 	mov.w	r5, #4294967295	; 0xffffffff
    371a:	e7d6      	b.n	36ca <_swilseek+0x3a>
    371c:	f002 ffb6 	bl	668c <__errno>
    3720:	2309      	movs	r3, #9
    3722:	6003      	str	r3, [r0, #0]
    3724:	f04f 35ff 	mov.w	r5, #4294967295	; 0xffffffff
    3728:	e7cf      	b.n	36ca <_swilseek+0x3a>
    372a:	bf00      	nop

0000372c <_lseek>:
    372c:	f7ff bfb0 	b.w	3690 <_swilseek>

00003730 <_close>:
    3730:	b570      	push	{r4, r5, r6, lr}
    3732:	b082      	sub	sp, #8
    3734:	4604      	mov	r4, r0
    3736:	f7ff ff81 	bl	363c <findslot>
    373a:	b328      	cbz	r0, 3788 <_close+0x58>
    373c:	3c01      	subs	r4, #1
    373e:	2c01      	cmp	r4, #1
    3740:	4606      	mov	r6, r0
    3742:	d911      	bls.n	3768 <_close+0x38>
    3744:	ad02      	add	r5, sp, #8
    3746:	6833      	ldr	r3, [r6, #0]
    3748:	f845 3d04 	str.w	r3, [r5, #-4]!
    374c:	2402      	movs	r4, #2
    374e:	4620      	mov	r0, r4
    3750:	4629      	mov	r1, r5
    3752:	beab      	bkpt	0x00ab
    3754:	4604      	mov	r4, r0
    3756:	1c63      	adds	r3, r4, #1
    3758:	4620      	mov	r0, r4
    375a:	d010      	beq.n	377e <_close+0x4e>
    375c:	b910      	cbnz	r0, 3764 <_close+0x34>
    375e:	f04f 33ff 	mov.w	r3, #4294967295	; 0xffffffff
    3762:	6033      	str	r3, [r6, #0]
    3764:	b002      	add	sp, #8
    3766:	bd70      	pop	{r4, r5, r6, pc}
    3768:	4b0b      	ldr	r3, [pc, #44]	; (3798 <_close+0x68>)
    376a:	689a      	ldr	r2, [r3, #8]
    376c:	691b      	ldr	r3, [r3, #16]
    376e:	429a      	cmp	r2, r3
    3770:	d1e8      	bne.n	3744 <_close+0x14>
    3772:	f04f 33ff 	mov.w	r3, #4294967295	; 0xffffffff
    3776:	6003      	str	r3, [r0, #0]
    3778:	2000      	movs	r0, #0
    377a:	b002      	add	sp, #8
    377c:	bd70      	pop	{r4, r5, r6, pc}
    377e:	f7ff ff79 	bl	3674 <checkerror.part.0>
    3782:	2800      	cmp	r0, #0
    3784:	d0eb      	beq.n	375e <_close+0x2e>
    3786:	e7ed      	b.n	3764 <_close+0x34>
    3788:	f002 ff80 	bl	668c <__errno>
    378c:	2309      	movs	r3, #9
    378e:	6003      	str	r3, [r0, #0]
    3790:	f04f 30ff 	mov.w	r0, #4294967295	; 0xffffffff
    3794:	e7e6      	b.n	3764 <_close+0x34>
    3796:	bf00      	nop
    3798:	20001304 	.word	0x20001304

0000379c <_isatty>:
    379c:	b570      	push	{r4, r5, r6, lr}
    379e:	f7ff ff4d 	bl	363c <findslot>
    37a2:	4604      	mov	r4, r0
    37a4:	b190      	cbz	r0, 37cc <_isatty+0x30>
    37a6:	2509      	movs	r5, #9
    37a8:	4628      	mov	r0, r5
    37aa:	4621      	mov	r1, r4
    37ac:	beab      	bkpt	0x00ab
    37ae:	4604      	mov	r4, r0
    37b0:	2c01      	cmp	r4, #1
    37b2:	d009      	beq.n	37c8 <_isatty+0x2c>
    37b4:	f002 ff6a 	bl	668c <__errno>
    37b8:	2513      	movs	r5, #19
    37ba:	4606      	mov	r6, r0
    37bc:	2400      	movs	r4, #0
    37be:	4628      	mov	r0, r5
    37c0:	4621      	mov	r1, r4
    37c2:	beab      	bkpt	0x00ab
    37c4:	4605      	mov	r5, r0
    37c6:	6035      	str	r5, [r6, #0]
    37c8:	4620      	mov	r0, r4
    37ca:	bd70      	pop	{r4, r5, r6, pc}
    37cc:	f002 ff5e 	bl	668c <__errno>
    37d0:	2209      	movs	r2, #9
    37d2:	6002      	str	r2, [r0, #0]
    37d4:	4620      	mov	r0, r4
    37d6:	bd70      	pop	{r4, r5, r6, pc}

000037d8 <USB0DeviceIntHandler>:
//! \return None.
//
//*****************************************************************************
void
USB0DeviceIntHandler(void)
{
    37d8:	b580      	push	{r7, lr}
    37da:	b082      	sub	sp, #8
    37dc:	af00      	add	r7, sp, #0
    unsigned long ulStatus;

    //
    // Get the controller interrupt status.
    //
    ulStatus = MAP_USBIntStatusControl(USB0_BASE);
    37de:	4b07      	ldr	r3, [pc, #28]	; (37fc <USB0DeviceIntHandler+0x24>)
    37e0:	681b      	ldr	r3, [r3, #0]
    37e2:	33c8      	adds	r3, #200	; 0xc8
    37e4:	681b      	ldr	r3, [r3, #0]
    37e6:	4806      	ldr	r0, [pc, #24]	; (3800 <USB0DeviceIntHandler+0x28>)
    37e8:	4798      	blx	r3
    37ea:	6078      	str	r0, [r7, #4]

    //
    // Call the internal handler.
    //
    USBDeviceIntHandlerInternal(0, ulStatus);
    37ec:	6879      	ldr	r1, [r7, #4]
    37ee:	2000      	movs	r0, #0
    37f0:	f001 fb32 	bl	4e58 <USBDeviceIntHandlerInternal>
}
    37f4:	bf00      	nop
    37f6:	3708      	adds	r7, #8
    37f8:	46bd      	mov	sp, r7
    37fa:	bd80      	pop	{r7, pc}
    37fc:	01000050 	.word	0x01000050
    3800:	40050000 	.word	0x40050000

00003804 <SetDeferredOpFlag>:
//
//*****************************************************************************
static void
SetDeferredOpFlag(volatile unsigned short *pusDeferredOp, unsigned short usBit,
                  tBoolean bSet)
{
    3804:	b480      	push	{r7}
    3806:	b083      	sub	sp, #12
    3808:	af00      	add	r7, sp, #0
    380a:	6078      	str	r0, [r7, #4]
    380c:	460b      	mov	r3, r1
    380e:	807b      	strh	r3, [r7, #2]
    3810:	4613      	mov	r3, r2
    3812:	707b      	strb	r3, [r7, #1]
    //
    // Set the flag bit to 1 or 0 using a bitband access.
    //
    HWREGBITH(pusDeferredOp, usBit) = bSet ? 1 : 0;
    3814:	787b      	ldrb	r3, [r7, #1]
    3816:	2b00      	cmp	r3, #0
    3818:	bf14      	ite	ne
    381a:	2301      	movne	r3, #1
    381c:	2300      	moveq	r3, #0
    381e:	b2d9      	uxtb	r1, r3
    3820:	687b      	ldr	r3, [r7, #4]
    3822:	f003 4270 	and.w	r2, r3, #4026531840	; 0xf0000000
    3826:	687b      	ldr	r3, [r7, #4]
    3828:	015b      	lsls	r3, r3, #5
    382a:	f023 437e 	bic.w	r3, r3, #4261412864	; 0xfe000000
    382e:	f023 031f 	bic.w	r3, r3, #31
    3832:	4313      	orrs	r3, r2
    3834:	887a      	ldrh	r2, [r7, #2]
    3836:	0092      	lsls	r2, r2, #2
    3838:	4313      	orrs	r3, r2
    383a:	f043 7300 	orr.w	r3, r3, #33554432	; 0x2000000
    383e:	b28a      	uxth	r2, r1
    3840:	801a      	strh	r2, [r3, #0]
}
    3842:	bf00      	nop
    3844:	370c      	adds	r7, #12
    3846:	46bd      	mov	sp, r7
    3848:	f85d 7b04 	ldr.w	r7, [sp], #4
    384c:	4770      	bx	lr
	...

00003850 <ProcessDataFromHost>:
// \return Returns \b true on success or \b false on failure.
//
//*****************************************************************************
static tBoolean
ProcessDataFromHost(const tUSBDBulkDevice *psDevice, unsigned long ulStatus)
{
    3850:	b590      	push	{r4, r7, lr}
    3852:	b087      	sub	sp, #28
    3854:	af00      	add	r7, sp, #0
    3856:	6078      	str	r0, [r7, #4]
    3858:	6039      	str	r1, [r7, #0]
    tBulkInstance *psInst;

    //
    // Get a pointer to our instance data.
    //
    psInst = psDevice->psPrivateBulkData;
    385a:	687b      	ldr	r3, [r7, #4]
    385c:	6a1b      	ldr	r3, [r3, #32]
    385e:	617b      	str	r3, [r7, #20]

    //
    // Get the endpoint status to see why we were called.
    //
    ulEPStatus = MAP_USBEndpointStatus(USB0_BASE, psInst->ucOUTEndpoint);
    3860:	4b25      	ldr	r3, [pc, #148]	; (38f8 <ProcessDataFromHost+0xa8>)
    3862:	681b      	ldr	r3, [r3, #0]
